ccopy_reg
_reconstructor
p0
(c__main__
pytabSong
p1
c__builtin__
object
p2
Ntp3
Rp4
(dp5
S'objects'
p6
(lp7
g0
(c__main__
pytabMeasure
p8
g2
Ntp9
Rp10
(dp11
S'pageBreak'
p12
I00
sg6
(lp13
g0
(c__main__
pytabBeat
p14
g2
Ntp15
Rp16
(dp17
g6
(lp18
NaNaNaNaNag0
(c__main__
pytabNote
p19
g2
Ntp20
Rp21
(dp22
S'noteType'
p23
I0
sS'string'
p24
I6
sS'fret'
p25
I1
sbasS'annotation'
p26
S'Move pattenrs up/down'
p27
sbag0
(g14
g2
Ntp28
Rp29
(dp30
g6
(lp31
NaNaNaNaNag0
(g19
g2
Ntp32
Rp33
(dp34
g23
I0
sg24
I6
sg25
I2
sbasg26
Nsbag0
(g14
g2
Ntp35
Rp36
(dp37
g6
(lp38
NaNaNaNaNag0
(g19
g2
Ntp39
Rp40
(dp41
g23
I0
sg24
I6
sg25
I3
sbasg26
Nsbag0
(g14
g2
Ntp42
Rp43
(dp44
g6
(lp45
NaNaNaNaNag0
(g19
g2
Ntp46
Rp47
(dp48
g23
I0
sg24
I6
sg25
I4
sbasg26
Nsbag0
(g14
g2
Ntp49
Rp50
(dp51
g6
(lp52
NaNaNaNag0
(g19
g2
Ntp53
Rp54
(dp55
g23
I0
sg24
I5
sg25
I1
sbasg26
Nsbag0
(g14
g2
Ntp56
Rp57
(dp58
g6
(lp59
NaNaNaNaNag0
(g19
g2
Ntp60
Rp61
(dp62
g23
I0
sg24
I6
sg25
I2
sbasg26
Nsbag0
(g14
g2
Ntp63
Rp64
(dp65
g6
(lp66
NaNaNaNaNag0
(g19
g2
Ntp67
Rp68
(dp69
g23
I0
sg24
I6
sg25
I3
sbasg26
Nsbag0
(g14
g2
Ntp70
Rp71
(dp72
g6
(lp73
NaNaNaNaNag0
(g19
g2
Ntp74
Rp75
(dp76
g23
I0
sg24
I6
sg25
I4
sbasg26
Nsbag0
(g14
g2
Ntp77
Rp78
(dp79
g6
(lp80
NaNaNaNag0
(g19
g2
Ntp81
Rp82
(dp83
g23
I0
sg24
I5
sg25
I1
sbasg26
Nsbag0
(g14
g2
Ntp84
Rp85
(dp86
g6
(lp87
NaNaNaNag0
(g19
g2
Ntp88
Rp89
(dp90
g23
I0
sg24
I5
sg25
I2
sbasg26
Nsbag0
(g14
g2
Ntp91
Rp92
(dp93
g6
(lp94
NaNaNaNaNag0
(g19
g2
Ntp95
Rp96
(dp97
g23
I0
sg24
I6
sg25
I3
sbasg26
Nsbag0
(g14
g2
Ntp98
Rp99
(dp100
g6
(lp101
NaNaNaNaNag0
(g19
g2
Ntp102
Rp103
(dp104
g23
I0
sg24
I6
sg25
I4
sbasg26
Nsbag0
(g14
g2
Ntp105
Rp106
(dp107
g6
(lp108
NaNaNaNag0
(g19
g2
Ntp109
Rp110
(dp111
g23
I0
sg24
I5
sg25
I1
sbasg26
Nsbag0
(g14
g2
Ntp112
Rp113
(dp114
g6
(lp115
NaNaNaNag0
(g19
g2
Ntp116
Rp117
(dp118
g23
I0
sg24
I5
sg25
I2
sbasg26
Nsbag0
(g14
g2
Ntp119
Rp120
(dp121
g6
(lp122
NaNaNaNag0
(g19
g2
Ntp123
Rp124
(dp125
g23
I0
sg24
I5
sg25
I3
sbasg26
Nsbag0
(g14
g2
Ntp126
Rp127
(dp128
g6
(lp129
NaNaNaNaNag0
(g19
g2
Ntp130
Rp131
(dp132
g23
I0
sg24
I6
sg25
I4
sbasg26
Nsbasg26
NsS'repeat'
p133
I00
sbag0
(g8
g2
Ntp134
Rp135
(dp136
g6
(lp137
g0
(g14
g2
Ntp138
Rp139
(dp140
g6
(lp141
g0
(g19
g2
Ntp142
Rp143
(dp144
g23
I0
sg24
I1
sg25
I4
sbasg26
Nsbag0
(g14
g2
Ntp145
Rp146
(dp147
g6
(lp148
g0
(g19
g2
Ntp149
Rp150
(dp151
g23
I0
sg24
I1
sg25
I3
sbasg26
Nsbag0
(g14
g2
Ntp152
Rp153
(dp154
g6
(lp155
g0
(g19
g2
Ntp156
Rp157
(dp158
g23
I0
sg24
I1
sg25
I2
sbasg26
Nsbag0
(g14
g2
Ntp159
Rp160
(dp161
g6
(lp162
g0
(g19
g2
Ntp163
Rp164
(dp165
g23
I0
sg24
I1
sg25
I1
sbasg26
Nsbag0
(g14
g2
Ntp166
Rp167
(dp168
g6
(lp169
Nag0
(g19
g2
Ntp170
Rp171
(dp172
g23
I0
sg24
I2
sg25
I4
sbasg26
Nsbag0
(g14
g2
Ntp173
Rp174
(dp175
g6
(lp176
g0
(g19
g2
Ntp177
Rp178
(dp179
g23
I0
sg24
I1
sg25
I3
sbasg26
Nsbag0
(g14
g2
Ntp180
Rp181
(dp182
g6
(lp183
g0
(g19
g2
Ntp184
Rp185
(dp186
g23
I0
sg24
I1
sg25
I2
sbasg26
Nsbag0
(g14
g2
Ntp187
Rp188
(dp189
g6
(lp190
g0
(g19
g2
Ntp191
Rp192
(dp193
g23
I0
sg24
I1
sg25
I1
sbasg26
Nsbag0
(g14
g2
Ntp194
Rp195
(dp196
g6
(lp197
Nag0
(g19
g2
Ntp198
Rp199
(dp200
g23
I0
sg24
I2
sg25
I4
sbasg26
Nsbag0
(g14
g2
Ntp201
Rp202
(dp203
g6
(lp204
Nag0
(g19
g2
Ntp205
Rp206
(dp207
g23
I0
sg24
I2
sg25
I3
sbasg26
Nsbag0
(g14
g2
Ntp208
Rp209
(dp210
g6
(lp211
g0
(g19
g2
Ntp212
Rp213
(dp214
g23
I0
sg24
I1
sg25
I2
sbasg26
Nsbag0
(g14
g2
Ntp215
Rp216
(dp217
g6
(lp218
g0
(g19
g2
Ntp219
Rp220
(dp221
g23
I0
sg24
I1
sg25
I1
sbasg26
Nsbag0
(g14
g2
Ntp222
Rp223
(dp224
g6
(lp225
Nag0
(g19
g2
Ntp226
Rp227
(dp228
g23
I0
sg24
I2
sg25
I4
sbasg26
Nsbag0
(g14
g2
Ntp229
Rp230
(dp231
g6
(lp232
Nag0
(g19
g2
Ntp233
Rp234
(dp235
g23
I0
sg24
I2
sg25
I3
sbasg26
Nsbag0
(g14
g2
Ntp236
Rp237
(dp238
g6
(lp239
Nag0
(g19
g2
Ntp240
Rp241
(dp242
g23
I0
sg24
I2
sg25
I2
sbasg26
Nsbag0
(g14
g2
Ntp243
Rp244
(dp245
g6
(lp246
g0
(g19
g2
Ntp247
Rp248
(dp249
g23
I0
sg24
I1
sg25
I1
sbasg26
Nsbasg12
I00
sg26
Nsg133
I00
sbag0
(g8
g2
Ntp250
Rp251
(dp252
g6
(lp253
g0
(g14
g2
Ntp254
Rp255
(dp256
g6
(lp257
NaNaNaNaNag0
(g19
g2
Ntp258
Rp259
(dp260
g23
I0
sg24
I6
sg25
I1
sbasg26
Nsbag0
(g14
g2
Ntp261
Rp262
(dp263
g6
(lp264
NaNaNaNaNag0
(g19
g2
Ntp265
Rp266
(dp267
g23
I0
sg24
I6
sg25
I2
sbasg26
Nsbag0
(g14
g2
Ntp268
Rp269
(dp270
g6
(lp271
NaNaNaNaNag0
(g19
g2
Ntp272
Rp273
(dp274
g23
I0
sg24
I6
sg25
I3
sbasg26
Nsbag0
(g14
g2
Ntp275
Rp276
(dp277
g6
(lp278
NaNaNaNaNag0
(g19
g2
Ntp279
Rp280
(dp281
g23
I0
sg24
I6
sg25
I4
sbasg26
Nsbag0
(g14
g2
Ntp282
Rp283
(dp284
g6
(lp285
NaNaNag0
(g19
g2
Ntp286
Rp287
(dp288
g23
I0
sg24
I4
sg25
I1
sbasg26
Nsbag0
(g14
g2
Ntp289
Rp290
(dp291
g6
(lp292
NaNaNaNaNag0
(g19
g2
Ntp293
Rp294
(dp295
g23
I0
sg24
I6
sg25
I2
sbasg26
Nsbag0
(g14
g2
Ntp296
Rp297
(dp298
g6
(lp299
NaNaNaNaNag0
(g19
g2
Ntp300
Rp301
(dp302
g23
I0
sg24
I6
sg25
I3
sbasg26
Nsbag0
(g14
g2
Ntp303
Rp304
(dp305
g6
(lp306
NaNaNaNaNag0
(g19
g2
Ntp307
Rp308
(dp309
g23
I0
sg24
I6
sg25
I4
sbasg26
Nsbag0
(g14
g2
Ntp310
Rp311
(dp312
g6
(lp313
NaNaNag0
(g19
g2
Ntp314
Rp315
(dp316
g23
I0
sg24
I4
sg25
I1
sbasg26
Nsbag0
(g14
g2
Ntp317
Rp318
(dp319
g6
(lp320
NaNaNag0
(g19
g2
Ntp321
Rp322
(dp323
g23
I0
sg24
I4
sg25
I2
sbasg26
Nsbag0
(g14
g2
Ntp324
Rp325
(dp326
g6
(lp327
NaNaNaNaNag0
(g19
g2
Ntp328
Rp329
(dp330
g23
I0
sg24
I6
sg25
I3
sbasg26
Nsbag0
(g14
g2
Ntp331
Rp332
(dp333
g6
(lp334
NaNaNaNaNag0
(g19
g2
Ntp335
Rp336
(dp337
g23
I0
sg24
I6
sg25
I4
sbasg26
Nsbag0
(g14
g2
Ntp338
Rp339
(dp340
g6
(lp341
NaNaNag0
(g19
g2
Ntp342
Rp343
(dp344
g23
I0
sg24
I4
sg25
I1
sbasg26
Nsbag0
(g14
g2
Ntp345
Rp346
(dp347
g6
(lp348
NaNaNag0
(g19
g2
Ntp349
Rp350
(dp351
g23
I0
sg24
I4
sg25
I2
sbasg26
Nsbag0
(g14
g2
Ntp352
Rp353
(dp354
g6
(lp355
NaNaNag0
(g19
g2
Ntp356
Rp357
(dp358
g23
I0
sg24
I4
sg25
I3
sbasg26
Nsbag0
(g14
g2
Ntp359
Rp360
(dp361
g6
(lp362
NaNaNaNaNag0
(g19
g2
Ntp363
Rp364
(dp365
g23
I0
sg24
I6
sg25
I4
sbasg26
Nsbasg12
I00
sg26
Nsg133
I00
sbasS'tuningIndex'
p366
I0
sg26
NsS'songName'
p367
S'Exercise1'
p368
sb.