ccopy_reg
_reconstructor
p0
(c__main__
pytabSong
p1
c__builtin__
object
p2
Ntp3
Rp4
(dp5
S'objects'
p6
(lp7
g0
(c__main__
pytabMeasure
p8
g2
Ntp9
Rp10
(dp11
g6
(lp12
g0
(c__main__
pytabBeat
p13
g2
Ntp14
Rp15
(dp16
g6
(lp17
NaNag0
(c__main__
pytabNote
p18
g2
Ntp19
Rp20
(dp21
S'noteType'
p22
I0
sS'string'
p23
I3
sS'fret'
p24
I4
sbag0
(g18
g2
Ntp25
Rp26
(dp27
g22
I0
sg23
I4
sg24
I4
sbag0
(g18
g2
Ntp28
Rp29
(dp30
g22
I0
sg23
I5
sg24
I2
sbasS'annotation'
p31
S'Intro'
p32
sbag0
(g13
g2
Ntp33
Rp34
(dp35
g6
(lp36
g0
(g18
g2
Ntp37
Rp38
(dp39
g22
I0
sg23
I1
sg24
I0
sbag0
(g18
g2
Ntp40
Rp41
(dp42
g22
I0
sg23
I2
sg24
I0
sbag0
(g18
g2
Ntp43
Rp44
(dp45
g22
I0
sg23
I3
sg24
I2
sbag0
(g18
g2
Ntp46
Rp47
(dp48
g22
I0
sg23
I4
sg24
I4
sbag0
(g18
g2
Ntp49
Rp50
(dp51
g22
I0
sg23
I5
sg24
I4
sbasg31
NsbasS'pageBreak'
p52
I00
sg31
NsS'repeat'
p53
I00
sbag0
(g8
g2
Ntp54
Rp55
(dp56
g6
(lp57
g0
(g13
g2
Ntp58
Rp59
(dp60
g6
(lp61
Nag0
(g18
g2
Ntp62
Rp63
(dp64
g22
I0
sg23
I2
sg24
I7
sbag0
(g18
g2
Ntp65
Rp66
(dp67
g22
I0
sg23
I3
sg24
I6
sbag0
(g18
g2
Ntp68
Rp69
(dp70
g22
I0
sg23
I4
sg24
I4
sbasg31
S'V'
p71
sbag0
(g13
g2
Ntp72
Rp73
(dp74
g6
(lp75
NaNag0
(g18
g2
Ntp76
Rp77
(dp78
g22
I0
sg23
I3
sg24
I4
sbag0
(g18
g2
Ntp79
Rp80
(dp81
g22
I0
sg23
I4
sg24
I4
sbag0
(g18
g2
Ntp82
Rp83
(dp84
g22
I0
sg23
I5
sg24
I2
sbasg31
Nsbag0
(g13
g2
Ntp85
Rp86
(dp87
g6
(lp88
NaNag0
(g18
g2
Ntp89
Rp90
(dp91
g22
I0
sg23
I3
sg24
I2
sbag0
(g18
g2
Ntp92
Rp93
(dp94
g22
I0
sg23
I4
sg24
I2
sbag0
(g18
g2
Ntp95
Rp96
(dp97
g22
I0
sg23
I5
sg24
I0
sbasg31
Nsbag0
(g13
g2
Ntp98
Rp99
(dp100
g6
(lp101
Nag0
(g18
g2
Ntp102
Rp103
(dp104
g22
I0
sg23
I2
sg24
I5
sbag0
(g18
g2
Ntp105
Rp106
(dp107
g22
I0
sg23
I3
sg24
I4
sbag0
(g18
g2
Ntp108
Rp109
(dp110
g22
I0
sg23
I4
sg24
I2
sbasg31
Nsbasg52
I00
sg31
Nsg53
I00
sbag0
(g8
g2
Ntp111
Rp112
(dp113
g6
(lp114
g0
(g13
g2
Ntp115
Rp116
(dp117
g6
(lp118
g0
(g18
g2
Ntp119
Rp120
(dp121
g22
I0
sg23
I1
sg24
I5
sbag0
(g18
g2
Ntp122
Rp123
(dp124
g22
I0
sg23
I2
sg24
I7
sbag0
(g18
g2
Ntp125
Rp126
(dp127
g22
I0
sg23
I3
sg24
I7
sbag0
(g18
g2
Ntp128
Rp129
(dp130
g22
I0
sg23
I4
sg24
I5
sbasg31
S'Ch'
p131
sbag0
(g13
g2
Ntp132
Rp133
(dp134
g6
(lp135
g0
(g18
g2
Ntp136
Rp137
(dp138
g22
I0
sg23
I1
sg24
I8
sbag0
(g18
g2
Ntp139
Rp140
(dp141
g22
I0
sg23
I2
sg24
I10
sbag0
(g18
g2
Ntp142
Rp143
(dp144
g22
I0
sg23
I3
sg24
I10
sbag0
(g18
g2
Ntp145
Rp146
(dp147
g22
I0
sg23
I4
sg24
I8
sbasg31
Nsbag0
(g13
g2
Ntp148
Rp149
(dp150
g6
(lp151
g0
(g18
g2
Ntp152
Rp153
(dp154
g22
I0
sg23
I1
sg24
I3
sbag0
(g18
g2
Ntp155
Rp156
(dp157
g22
I0
sg23
I2
sg24
I5
sbag0
(g18
g2
Ntp158
Rp159
(dp160
g22
I0
sg23
I3
sg24
I5
sbag0
(g18
g2
Ntp161
Rp162
(dp163
g22
I0
sg23
I4
sg24
I3
sbasg31
Nsbag0
(g13
g2
Ntp164
Rp165
(dp166
g6
(lp167
g0
(g18
g2
Ntp168
Rp169
(dp170
g22
I0
sg23
I1
sg24
I6
sbag0
(g18
g2
Ntp171
Rp172
(dp173
g22
I0
sg23
I2
sg24
I8
sbag0
(g18
g2
Ntp174
Rp175
(dp176
g22
I0
sg23
I3
sg24
I8
sbag0
(g18
g2
Ntp177
Rp178
(dp179
g22
I0
sg23
I4
sg24
I6
sbasg31
Nsbag0
(g13
g2
Ntp180
Rp181
(dp182
g6
(lp183
g0
(g18
g2
Ntp184
Rp185
(dp186
g22
I0
sg23
I1
sg24
I5
sbag0
(g18
g2
Ntp187
Rp188
(dp189
g22
I0
sg23
I2
sg24
I7
sbag0
(g18
g2
Ntp190
Rp191
(dp192
g22
I0
sg23
I3
sg24
I7
sbag0
(g18
g2
Ntp193
Rp194
(dp195
g22
I0
sg23
I4
sg24
I5
sbasg31
Nsbasg52
I00
sg31
Nsg53
I00
sbag0
(g8
g2
Ntp196
Rp197
(dp198
g6
(lp199
g0
(g13
g2
Ntp200
Rp201
(dp202
g6
(lp203
NaNaNag0
(g18
g2
Ntp204
Rp205
(dp206
g22
I0
sg23
I4
sg24
I5
sbasg31
S'Interlude'
p207
sbag0
(g13
g2
Ntp208
Rp209
(dp210
g6
(lp211
NaNag0
(g18
g2
Ntp212
Rp213
(dp214
g22
I0
sg23
I3
sg24
I7
sbaNasg31
Nsbag0
(g13
g2
Ntp215
Rp216
(dp217
g6
(lp218
Nag0
(g18
g2
Ntp219
Rp220
(dp221
g22
I0
sg23
I2
sg24
I5
sbaNasg31
Nsbag0
(g13
g2
Ntp222
Rp223
(dp224
g6
(lp225
Nag0
(g18
g2
Ntp226
Rp227
(dp228
g22
I0
sg23
I2
sg24
I7
sbasg31
Nsbag0
(g13
g2
Ntp229
Rp230
(dp231
g6
(lp232
g0
(g18
g2
Ntp233
Rp234
(dp235
g22
I0
sg23
I1
sg24
I5
sbasg31
Nsbag0
(g13
g2
Ntp236
Rp237
(dp238
g6
(lp239
Nag0
(g18
g2
Ntp240
Rp241
(dp242
g22
I0
sg23
I2
sg24
I7
sbasg31
Nsbag0
(g13
g2
Ntp243
Rp244
(dp245
g6
(lp246
Nag0
(g18
g2
Ntp247
Rp248
(dp249
g22
I0
sg23
I2
sg24
I5
sbasg31
Nsbag0
(g13
g2
Ntp250
Rp251
(dp252
g6
(lp253
NaNag0
(g18
g2
Ntp254
Rp255
(dp256
g22
I0
sg23
I3
sg24
I7
sbasg31
Nsbasg52
I01
sg31
Nsg53
I01
sbag0
(g8
g2
Ntp257
Rp258
(dp259
g6
(lp260
g0
(g13
g2
Ntp261
Rp262
(dp263
g6
(lp264
NaNaNag0
(g18
g2
Ntp265
Rp266
(dp267
g22
I0
sg23
I4
sg24
I2
sbasg31
Nsbag0
(g13
g2
Ntp268
Rp269
(dp270
g6
(lp271
NaNag0
(g18
g2
Ntp272
Rp273
(dp274
g22
I0
sg23
I3
sg24
I4
sbasg31
Nsbag0
(g13
g2
Ntp275
Rp276
(dp277
g6
(lp278
Nag0
(g18
g2
Ntp279
Rp280
(dp281
g22
I0
sg23
I2
sg24
I2
sbasg31
Nsbag0
(g13
g2
Ntp282
Rp283
(dp284
g6
(lp285
Nag0
(g18
g2
Ntp286
Rp287
(dp288
g22
I0
sg23
I2
sg24
I4
sbasg31
Nsbag0
(g13
g2
Ntp289
Rp290
(dp291
g6
(lp292
g0
(g18
g2
Ntp293
Rp294
(dp295
g22
I0
sg23
I1
sg24
I2
sbasg31
Nsbag0
(g13
g2
Ntp296
Rp297
(dp298
g6
(lp299
Nag0
(g18
g2
Ntp300
Rp301
(dp302
g22
I0
sg23
I2
sg24
I4
sbasg31
Nsbag0
(g13
g2
Ntp303
Rp304
(dp305
g6
(lp306
Nag0
(g18
g2
Ntp307
Rp308
(dp309
g22
I0
sg23
I2
sg24
I2
sbasg31
Nsbag0
(g13
g2
Ntp310
Rp311
(dp312
g6
(lp313
NaNag0
(g18
g2
Ntp314
Rp315
(dp316
g22
I0
sg23
I3
sg24
I4
sbasg31
Nsbasg52
I00
sg31
Nsg53
I01
sbag0
(g8
g2
Ntp317
Rp318
(dp319
g6
(lp320
g0
(g13
g2
Ntp321
Rp322
(dp323
g6
(lp324
NaNaNaNag0
(g18
g2
Ntp325
Rp326
(dp327
g22
I0
sg23
I5
sg24
I5
sbasg31
Nsbag0
(g13
g2
Ntp328
Rp329
(dp330
g6
(lp331
NaNaNag0
(g18
g2
Ntp332
Rp333
(dp334
g22
I0
sg23
I4
sg24
I8
sbasg31
Nsbag0
(g13
g2
Ntp335
Rp336
(dp337
g6
(lp338
NaNag0
(g18
g2
Ntp339
Rp340
(dp341
g22
I0
sg23
I3
sg24
I0
sbasg31
Nsbag0
(g13
g2
Ntp342
Rp343
(dp344
g6
(lp345
Nag0
(g18
g2
Ntp346
Rp347
(dp348
g22
I0
sg23
I2
sg24
I6
sbasg31
Nsbag0
(g13
g2
Ntp349
Rp350
(dp351
g6
(lp352
g0
(g18
g2
Ntp353
Rp354
(dp355
g22
I0
sg23
I1
sg24
I0
sbasg31
Nsbasg52
I01
sg31
Nsg53
I00
sbag0
(g8
g2
Ntp356
Rp357
(dp358
g6
(lp359
g0
(g13
g2
Ntp360
Rp361
(dp362
g6
(lp363
NaNaNaNag0
(g18
g2
Ntp364
Rp365
(dp366
g22
I0
sg23
I5
sg24
I2
sbasg31
Nsbag0
(g13
g2
Ntp367
Rp368
(dp369
g6
(lp370
NaNaNag0
(g18
g2
Ntp371
Rp372
(dp373
g22
I0
sg23
I4
sg24
I4
sbasg31
Nsbag0
(g13
g2
Ntp374
Rp375
(dp376
g6
(lp377
NaNag0
(g18
g2
Ntp378
Rp379
(dp380
g22
I0
sg23
I3
sg24
I0
sbasg31
Nsbag0
(g13
g2
Ntp381
Rp382
(dp383
g6
(lp384
Nag0
(g18
g2
Ntp385
Rp386
(dp387
g22
I0
sg23
I2
sg24
I3
sbaNasg31
Nsbag0
(g13
g2
Ntp388
Rp389
(dp390
g6
(lp391
g0
(g18
g2
Ntp392
Rp393
(dp394
g22
I0
sg23
I1
sg24
I0
sbasg31
Nsbasg52
I00
sg31
Nsg53
I00
sbag0
(g8
g2
Ntp395
Rp396
(dp397
g52
I01
sg6
(lp398
g0
(g13
g2
Ntp399
Rp400
(dp401
g6
(lp402
NaNaNaNag0
(g18
g2
Ntp403
Rp404
(dp405
g22
I0
sg23
I5
sg24
I5
sbasg31
Nsbag0
(g13
g2
Ntp406
Rp407
(dp408
g6
(lp409
NaNaNag0
(g18
g2
Ntp410
Rp411
(dp412
g22
I0
sg23
I4
sg24
I8
sbasg31
Nsbag0
(g13
g2
Ntp413
Rp414
(dp415
g6
(lp416
NaNag0
(g18
g2
Ntp417
Rp418
(dp419
g22
I0
sg23
I3
sg24
I0
sbasg31
Nsbag0
(g13
g2
Ntp420
Rp421
(dp422
g6
(lp423
Nag0
(g18
g2
Ntp424
Rp425
(dp426
g22
I0
sg23
I2
sg24
I6
sbasg31
Nsbag0
(g13
g2
Ntp427
Rp428
(dp429
g6
(lp430
g0
(g18
g2
Ntp431
Rp432
(dp433
g22
I0
sg23
I1
sg24
I0
sbasg31
Nsbasg31
Nsg53
I00
sbag0
(g8
g2
Ntp434
Rp435
(dp436
g52
I00
sg6
(lp437
g0
(g13
g2
Ntp438
Rp439
(dp440
g6
(lp441
NaNaNaNag0
(g18
g2
Ntp442
Rp443
(dp444
g22
I0
sg23
I5
sg24
I7
sbasg31
Nsbag0
(g13
g2
Ntp445
Rp446
(dp447
g6
(lp448
NaNaNag0
(g18
g2
Ntp449
Rp450
(dp451
g22
I0
sg23
I4
sg24
I10
sbasg31
Nsbag0
(g13
g2
Ntp452
Rp453
(dp454
g6
(lp455
NaNag0
(g18
g2
Ntp456
Rp457
(dp458
g22
I0
sg23
I3
sg24
I0
sbasg31
Nsbag0
(g13
g2
Ntp459
Rp460
(dp461
g6
(lp462
Nag0
(g18
g2
Ntp463
Rp464
(dp465
g22
I0
sg23
I2
sg24
I8
sbasg31
Nsbag0
(g13
g2
Ntp466
Rp467
(dp468
g6
(lp469
g0
(g18
g2
Ntp470
Rp471
(dp472
g22
I0
sg23
I1
sg24
I0
sbasg31
Nsbasg31
Nsg53
I00
sbasS'tuningIndex'
p473
I0
sg31
NsS'songName'
p474
S'Song6'
p475
sb.