ccopy_reg
_reconstructor
p0
(c__main__
pytabSong
p1
c__builtin__
object
p2
Ntp3
Rp4
(dp5
S'objects'
p6
(lp7
g0
(c__main__
pytabMeasure
p8
g2
Ntp9
Rp10
(dp11
S'pageBreak'
p12
I00
sg6
(lp13
g0
(c__main__
pytabBeat
p14
g2
Ntp15
Rp16
(dp17
g6
(lp18
NaNaNag0
(c__main__
pytabNote
p19
g2
Ntp20
Rp21
(dp22
S'noteType'
p23
I0
sS'string'
p24
I4
sS'fret'
p25
I2
sbasS'annotation'
p26
S'Riff 1'
p27
sbag0
(g14
g2
Ntp28
Rp29
(dp30
g6
(lp31
NaNaNag0
(g19
g2
Ntp32
Rp33
(dp34
g23
I3
sg24
I4
sg25
I4
sbasg26
Nsbag0
(g14
g2
Ntp35
Rp36
(dp37
g6
(lp38
NaNag0
(g19
g2
Ntp39
Rp40
(dp41
g23
I0
sg24
I3
sg25
I0
sbaNasg26
Nsbag0
(g14
g2
Ntp42
Rp43
(dp44
g6
(lp45
Nag0
(g19
g2
Ntp46
Rp47
(dp48
g23
I0
sg24
I2
sg25
I0
sbasg26
Nsbag0
(g14
g2
Ntp49
Rp50
(dp51
g6
(lp52
g0
(g19
g2
Ntp53
Rp54
(dp55
g23
I0
sg24
I1
sg25
I0
sbasg26
Nsbag0
(g14
g2
Ntp56
Rp57
(dp58
g6
(lp59
Nag0
(g19
g2
Ntp60
Rp61
(dp62
g23
I0
sg24
I2
sg25
I0
sbasg26
Nsbag0
(g14
g2
Ntp63
Rp64
(dp65
g6
(lp66
NaNaNag0
(g19
g2
Ntp67
Rp68
(dp69
g23
I0
sg24
I4
sg25
I4
sbasg26
Nsbag0
(g14
g2
Ntp70
Rp71
(dp72
g6
(lp73
NaNag0
(g19
g2
Ntp74
Rp75
(dp76
g23
I0
sg24
I3
sg25
I2
sbag0
(g19
g2
Ntp77
Rp78
(dp79
g23
I2
sg24
I4
sg25
I1
sbasg26
Nsbag0
(g14
g2
Ntp80
Rp81
(dp82
g6
(lp83
Nag0
(g19
g2
Ntp84
Rp85
(dp86
g23
I0
sg24
I2
sg25
I0
sbasg26
Nsbag0
(g14
g2
Ntp87
Rp88
(dp89
g6
(lp90
g0
(g19
g2
Ntp91
Rp92
(dp93
g23
I0
sg24
I1
sg25
I0
sbasg26
Nsbag0
(g14
g2
Ntp94
Rp95
(dp96
g6
(lp97
Nag0
(g19
g2
Ntp98
Rp99
(dp100
g23
I0
sg24
I2
sg25
I0
sbasg26
Nsbasg26
NsS'repeat'
p101
I01
sbag0
(g8
g2
Ntp102
Rp103
(dp104
g12
I00
sg101
I01
sg26
Nsg6
(lp105
g0
(g14
g2
Ntp106
Rp107
(dp108
g6
(lp109
NaNaNag0
(g19
g2
Ntp110
Rp111
(dp112
g23
I0
sg24
I4
sg25
I5
sbasg26
Nsbag0
(g14
g2
Ntp113
Rp114
(dp115
g6
(lp116
NaNaNag0
(g19
g2
Ntp117
Rp118
(dp119
g23
I0
sg24
I4
sg25
I7
sbasg26
Nsbag0
(g14
g2
Ntp120
Rp121
(dp122
g6
(lp123
g0
(g19
g2
Ntp124
Rp125
(dp126
g23
I0
sg24
I1
sg25
I5
sbag0
(g19
g2
Ntp127
Rp128
(dp129
g23
I0
sg24
I2
sg25
I5
sbag0
(g19
g2
Ntp130
Rp131
(dp132
g23
I0
sg24
I3
sg25
I5
sbasg26
Nsbag0
(g14
g2
Ntp133
Rp134
(dp135
g6
(lp136
NaNaNag0
(g19
g2
Ntp137
Rp138
(dp139
g23
I0
sg24
I4
sg25
I10
sbasg26
Nsbag0
(g14
g2
Ntp140
Rp141
(dp142
g6
(lp143
NaNaNag0
(g19
g2
Ntp144
Rp145
(dp146
g23
I0
sg24
I4
sg25
I9
sbasg26
Nsbag0
(g14
g2
Ntp147
Rp148
(dp149
g6
(lp150
g0
(g19
g2
Ntp151
Rp152
(dp153
g23
I0
sg24
I1
sg25
I7
sbag0
(g19
g2
Ntp154
Rp155
(dp156
g23
I0
sg24
I2
sg25
I7
sbag0
(g19
g2
Ntp157
Rp158
(dp159
g23
I0
sg24
I3
sg25
I7
sbasg26
Nsbasbag0
(g8
g2
Ntp160
Rp161
(dp162
g12
I01
sg101
I01
sg26
Nsg6
(lp163
g0
(g14
g2
Ntp164
Rp165
(dp166
g6
(lp167
NaNaNaNaNag0
(g19
g2
Ntp168
Rp169
(dp170
g23
I0
sg24
I6
sg25
I0
sbasg26
S'Riff 2'
p171
sbag0
(g14
g2
Ntp172
Rp173
(dp174
g6
(lp175
NaNaNag0
(g19
g2
Ntp176
Rp177
(dp178
g23
I0
sg24
I4
sg25
I4
sbasg26
Nsbag0
(g14
g2
Ntp179
Rp180
(dp181
g6
(lp182
NaNaNaNag0
(g19
g2
Ntp183
Rp184
(dp185
g23
I0
sg24
I5
sg25
I2
sbasg26
Nsbag0
(g14
g2
Ntp186
Rp187
(dp188
g6
(lp189
NaNag0
(g19
g2
Ntp190
Rp191
(dp192
g23
I0
sg24
I3
sg25
I0
sbasg26
Nsbasbag0
(g8
g2
Ntp193
Rp194
(dp195
g6
(lp196
g0
(g14
g2
Ntp197
Rp198
(dp199
g6
(lp200
NaNaNaNaNag0
(g19
g2
Ntp201
Rp202
(dp203
g23
I0
sg24
I6
sg25
I1
sbasg26
Nsbag0
(g14
g2
Ntp204
Rp205
(dp206
g6
(lp207
NaNaNag0
(g19
g2
Ntp208
Rp209
(dp210
g23
I0
sg24
I4
sg25
I0
sbasg26
Nsbag0
(g14
g2
Ntp211
Rp212
(dp213
g6
(lp214
NaNaNaNag0
(g19
g2
Ntp215
Rp216
(dp217
g23
I0
sg24
I5
sg25
I3
sbasg26
Nsbag0
(g14
g2
Ntp218
Rp219
(dp220
g6
(lp221
NaNag0
(g19
g2
Ntp222
Rp223
(dp224
g23
I0
sg24
I3
sg25
I0
sbasg26
Nsbasg12
I00
sg26
Nsg101
I01
sbag0
(g8
g2
Ntp225
Rp226
(dp227
g12
I00
sg101
I01
sg26
Nsg6
(lp228
g0
(g14
g2
Ntp229
Rp230
(dp231
g6
(lp232
NaNaNaNaNag0
(g19
g2
Ntp233
Rp234
(dp235
g23
I0
sg24
I6
sg25
I6
sbasg26
Nsbag0
(g14
g2
Ntp236
Rp237
(dp238
g6
(lp239
NaNaNag0
(g19
g2
Ntp240
Rp241
(dp242
g23
I0
sg24
I4
sg25
I0
sbasg26
Nsbag0
(g14
g2
Ntp243
Rp244
(dp245
g6
(lp246
NaNaNaNag0
(g19
g2
Ntp247
Rp248
(dp249
g23
I0
sg24
I5
sg25
I8
sbasg26
Nsbag0
(g14
g2
Ntp250
Rp251
(dp252
g6
(lp253
NaNag0
(g19
g2
Ntp254
Rp255
(dp256
g23
I0
sg24
I3
sg25
I0
sbasg26
Nsbasbag0
(g8
g2
Ntp257
Rp258
(dp259
g6
(lp260
g0
(g14
g2
Ntp261
Rp262
(dp263
g6
(lp264
NaNag0
(g19
g2
Ntp265
Rp266
(dp267
g23
I0
sg24
I3
sg25
I6
sbag0
(g19
g2
Ntp268
Rp269
(dp270
g23
I0
sg24
I4
sg25
I4
sbag0
(g19
g2
Ntp271
Rp272
(dp273
g23
I0
sg24
I5
sg25
I2
sbasg26
S'Riff 3'
p274
sbag0
(g14
g2
Ntp275
Rp276
(dp277
g6
(lp278
NaNaNag0
(g19
g2
Ntp279
Rp280
(dp281
g23
I0
sg24
I4
sg25
I7
sbag0
(g19
g2
Ntp282
Rp283
(dp284
g23
I0
sg24
I5
sg25
I5
sbag0
(g19
g2
Ntp285
Rp286
(dp287
g23
I0
sg24
I6
sg25
I3
sbasg26
Nsbag0
(g14
g2
Ntp288
Rp289
(dp290
g6
(lp291
NaNag0
(g19
g2
Ntp292
Rp293
(dp294
g23
I0
sg24
I3
sg25
I9
sbag0
(g19
g2
Ntp295
Rp296
(dp297
g23
I0
sg24
I4
sg25
I7
sbag0
(g19
g2
Ntp298
Rp299
(dp300
g23
I0
sg24
I5
sg25
I5
sbasg26
Nsbag0
(g14
g2
Ntp301
Rp302
(dp303
g6
(lp304
NaNag0
(g19
g2
Ntp305
Rp306
(dp307
g23
I0
sg24
I3
sg25
I7
sbag0
(g19
g2
Ntp308
Rp309
(dp310
g23
I0
sg24
I4
sg25
I5
sbag0
(g19
g2
Ntp311
Rp312
(dp313
g23
I0
sg24
I5
sg25
I3
sbasg26
Nsbasg12
I00
sg26
Nsg101
I00
sbag0
(g8
g2
Ntp314
Rp315
(dp316
g6
(lp317
g0
(g14
g2
Ntp318
Rp319
(dp320
g6
(lp321
NaNaNaNaNag0
(g19
g2
Ntp322
Rp323
(dp324
g23
I0
sg24
I6
sg25
I7
sbasg26
Nsbag0
(g14
g2
Ntp325
Rp326
(dp327
g6
(lp328
NaNaNaNag0
(g19
g2
Ntp329
Rp330
(dp331
g23
I0
sg24
I5
sg25
I5
sbaNasg26
Nsbag0
(g14
g2
Ntp332
Rp333
(dp334
g6
(lp335
NaNaNag0
(g19
g2
Ntp336
Rp337
(dp338
g23
I0
sg24
I4
sg25
I9
sbaNasg26
Nsbag0
(g14
g2
Ntp339
Rp340
(dp341
g6
(lp342
NaNaNag0
(g19
g2
Ntp343
Rp344
(dp345
g23
I0
sg24
I4
sg25
I6
sbaNasg26
Nsbag0
(g14
g2
Ntp346
Rp347
(dp348
g6
(lp349
NaNaNag0
(g19
g2
Ntp350
Rp351
(dp352
g23
I0
sg24
I4
sg25
I7
sbasg26
Nsbag0
(g14
g2
Ntp353
Rp354
(dp355
g6
(lp356
Nag0
(g19
g2
Ntp357
Rp358
(dp359
g23
I0
sg24
I2
sg25
I0
sbasg26
Nsbag0
(g14
g2
Ntp360
Rp361
(dp362
g6
(lp363
g0
(g19
g2
Ntp364
Rp365
(dp366
g23
I0
sg24
I1
sg25
I0
sbasg26
Nsbag0
(g14
g2
Ntp367
Rp368
(dp369
g6
(lp370
Nag0
(g19
g2
Ntp371
Rp372
(dp373
g23
I0
sg24
I2
sg25
I7
sbasg26
Nsbasg12
I01
sg26
Nsg101
I00
sbag0
(g8
g2
Ntp374
Rp375
(dp376
g6
(lp377
g0
(g14
g2
Ntp378
Rp379
(dp380
g6
(lp381
NaNaNaNag0
(g19
g2
Ntp382
Rp383
(dp384
g23
I0
sg24
I5
sg25
I10
sbasg26
Nsbag0
(g14
g2
Ntp385
Rp386
(dp387
g6
(lp388
NaNaNag0
(g19
g2
Ntp389
Rp390
(dp391
g23
I0
sg24
I4
sg25
I9
sbasg26
Nsbag0
(g14
g2
Ntp392
Rp393
(dp394
g6
(lp395
Nag0
(g19
g2
Ntp396
Rp397
(dp398
g23
I0
sg24
I2
sg25
I8
sbasg26
Nsbag0
(g14
g2
Ntp399
Rp400
(dp401
g6
(lp402
Nag0
(g19
g2
Ntp403
Rp404
(dp405
g23
I0
sg24
I2
sg25
I7
sbasg26
Nsbag0
(g14
g2
Ntp406
Rp407
(dp408
g6
(lp409
NaNag0
(g19
g2
Ntp410
Rp411
(dp412
g23
I0
sg24
I3
sg25
I7
sbasg26
Nsbag0
(g14
g2
Ntp413
Rp414
(dp415
g6
(lp416
NaNaNag0
(g19
g2
Ntp417
Rp418
(dp419
g23
I0
sg24
I4
sg25
I7
sbasg26
Nsbag0
(g14
g2
Ntp420
Rp421
(dp422
g6
(lp423
Nag0
(g19
g2
Ntp424
Rp425
(dp426
g23
I0
sg24
I2
sg25
I0
sbaNag0
(g19
g2
Ntp427
Rp428
(dp429
g23
I0
sg24
I4
sg25
I9
sbasg26
Nsbasg12
I00
sg26
Nsg101
I01
sbag0
(g8
g2
Ntp430
Rp431
(dp432
g12
I00
sg6
(lp433
g0
(g14
g2
Ntp434
Rp435
(dp436
g6
(lp437
NaNaNag0
(g19
g2
Ntp438
Rp439
(dp440
g23
I0
sg24
I4
sg25
I2
sbasg26
Nsbag0
(g14
g2
Ntp441
Rp442
(dp443
g6
(lp444
NaNaNag0
(g19
g2
Ntp445
Rp446
(dp447
g23
I0
sg24
I4
sg25
I1
sbasg26
Nsbag0
(g14
g2
Ntp448
Rp449
(dp450
g6
(lp451
NaNaNaNag0
(g19
g2
Ntp452
Rp453
(dp454
g23
I0
sg24
I5
sg25
I2
sbasg26
Nsbag0
(g14
g2
Ntp455
Rp456
(dp457
g6
(lp458
NaNag0
(g19
g2
Ntp459
Rp460
(dp461
g23
I0
sg24
I3
sg25
I2
sbasg26
Nsbag0
(g14
g2
Ntp462
Rp463
(dp464
g6
(lp465
Nag0
(g19
g2
Ntp466
Rp467
(dp468
g23
I0
sg24
I2
sg25
I0
sbasg26
Nsbag0
(g14
g2
Ntp469
Rp470
(dp471
g6
(lp472
NaNag0
(g19
g2
Ntp473
Rp474
(dp475
g23
I0
sg24
I3
sg25
I0
sbasg26
Nsbasg26
Nsg101
I01
sbasS'tuningIndex'
p476
I0
sg26
NsS'songName'
p477
S'Song4'
p478
sb.