ccopy_reg
_reconstructor
p0
(c__main__
pytabSong
p1
c__builtin__
object
p2
Ntp3
Rp4
(dp5
S'objects'
p6
(lp7
g0
(c__main__
pytabMeasure
p8
g2
Ntp9
Rp10
(dp11
S'pageBreak'
p12
I00
sS'repeat'
p13
I00
sS'annotation'
p14
Nsg6
(lp15
g0
(c__main__
pytabBeat
p16
g2
Ntp17
Rp18
(dp19
g6
(lp20
sg14
NsbasbasS'tuningIndex'
p21
I0
sg14
NsS'songName'
p22
S'Song'
p23
sb.