ccopy_reg
_reconstructor
p0
(c__main__
pytabSong
p1
c__builtin__
object
p2
Ntp3
Rp4
(dp5
S'objects'
p6
(lp7
g0
(c__main__
pytabMeasure
p8
g2
Ntp9
Rp10
(dp11
S'pageBreak'
p12
I00
sS'repeat'
p13
I00
sS'annotation'
p14
Nsg6
(lp15
g0
(c__main__
pytabBeat
p16
g2
Ntp17
Rp18
(dp19
g6
(lp20
Nag0
(c__main__
pytabNote
p21
g2
Ntp22
Rp23
(dp24
S'noteType'
p25
I0
sS'string'
p26
I2
sS'fret'
p27
I3
sbag0
(g21
g2
Ntp28
Rp29
(dp30
g25
I0
sg26
I3
sg27
I2
sbag0
(g21
g2
Ntp31
Rp32
(dp33
g25
I0
sg26
I4
sg27
I0
sbag0
(g21
g2
Ntp34
Rp35
(dp36
g25
I0
sg26
I5
sg27
I0
sbasg14
Nsbag0
(g16
g2
Ntp37
Rp38
(dp39
g6
(lp40
Nag0
(g21
g2
Ntp41
Rp42
(dp43
g25
I0
sg26
I2
sg27
I4
sbag0
(g21
g2
Ntp44
Rp45
(dp46
g25
I0
sg26
I3
sg27
I3
sbag0
(g21
g2
Ntp47
Rp48
(dp49
g25
I0
sg26
I4
sg27
I0
sbag0
(g21
g2
Ntp50
Rp51
(dp52
g25
I0
sg26
I5
sg27
I0
sbasg14
Nsbag0
(g16
g2
Ntp53
Rp54
(dp55
g6
(lp56
Nag0
(g21
g2
Ntp57
Rp58
(dp59
g25
I0
sg26
I2
sg27
I4
sbag0
(g21
g2
Ntp60
Rp61
(dp62
g25
I0
sg26
I3
sg27
I0
sbag0
(g21
g2
Ntp63
Rp64
(dp65
g25
I0
sg26
I4
sg27
I0
sbag0
(g21
g2
Ntp66
Rp67
(dp68
g25
I0
sg26
I5
sg27
I0
sbasg14
Nsbag0
(g16
g2
Ntp69
Rp70
(dp71
g6
(lp72
Nag0
(g21
g2
Ntp73
Rp74
(dp75
g25
I0
sg26
I2
sg27
I3
sbag0
(g21
g2
Ntp76
Rp77
(dp78
g25
I0
sg26
I3
sg27
I2
sbag0
(g21
g2
Ntp79
Rp80
(dp81
g25
I0
sg26
I4
sg27
I0
sbag0
(g21
g2
Ntp82
Rp83
(dp84
g25
I0
sg26
I5
sg27
I0
sbasg14
Nsbasbag0
(g8
g2
Ntp85
Rp86
(dp87
g12
I00
sg13
I00
sg14
Nsg6
(lp88
g0
(g16
g2
Ntp89
Rp90
(dp91
g6
(lp92
Nag0
(g21
g2
Ntp93
Rp94
(dp95
g25
I0
sg26
I2
sg27
I3
sbag0
(g21
g2
Ntp96
Rp97
(dp98
g25
I0
sg26
I3
sg27
I2
sbag0
(g21
g2
Ntp99
Rp100
(dp101
g25
I0
sg26
I4
sg27
I0
sbag0
(g21
g2
Ntp102
Rp103
(dp104
g25
I0
sg26
I5
sg27
I0
sbasg14
Nsbag0
(g16
g2
Ntp105
Rp106
(dp107
g6
(lp108
Nag0
(g21
g2
Ntp109
Rp110
(dp111
g25
I0
sg26
I2
sg27
I6
sbag0
(g21
g2
Ntp112
Rp113
(dp114
g25
I0
sg26
I3
sg27
I5
sbag0
(g21
g2
Ntp115
Rp116
(dp117
g25
I0
sg26
I4
sg27
I0
sbasg14
Nsbag0
(g16
g2
Ntp118
Rp119
(dp120
g6
(lp121
Nag0
(g21
g2
Ntp122
Rp123
(dp124
g25
I0
sg26
I2
sg27
I4
sbag0
(g21
g2
Ntp125
Rp126
(dp127
g25
I0
sg26
I3
sg27
I3
sbag0
(g21
g2
Ntp128
Rp129
(dp130
g25
I0
sg26
I4
sg27
I0
sbasg14
Nsbag0
(g16
g2
Ntp131
Rp132
(dp133
g6
(lp134
Nag0
(g21
g2
Ntp135
Rp136
(dp137
g25
I0
sg26
I2
sg27
I3
sbag0
(g21
g2
Ntp138
Rp139
(dp140
g25
I0
sg26
I3
sg27
I2
sbag0
(g21
g2
Ntp141
Rp142
(dp143
g25
I0
sg26
I4
sg27
I0
sbasg14
Nsbasbag0
(g8
g2
Ntp144
Rp145
(dp146
g12
I00
sg13
I00
sg14
Nsg6
(lp147
g0
(g16
g2
Ntp148
Rp149
(dp150
g6
(lp151
sg14
S'Bb'
p152
sbag0
(g16
g2
Ntp153
Rp154
(dp155
g6
(lp156
sg14
S'C'
p157
sbag0
(g16
g2
Ntp158
Rp159
(dp160
g6
(lp161
sg14
S'A'
p162
sbasbag0
(g8
g2
Ntp163
Rp164
(dp165
g12
I01
sg13
I00
sg14
Nsg6
(lp166
g0
(g16
g2
Ntp167
Rp168
(dp169
g6
(lp170
g0
(g21
g2
Ntp171
Rp172
(dp173
g25
I0
sg26
I1
sg27
I0
sbag0
(g21
g2
Ntp174
Rp175
(dp176
g25
I0
sg26
I2
sg27
I12
sbag0
(g21
g2
Ntp177
Rp178
(dp179
g25
I0
sg26
I3
sg27
I10
sbag0
(g21
g2
Ntp180
Rp181
(dp182
g25
I0
sg26
I4
sg27
I0
sbasg14
S'arp'
p183
sbag0
(g16
g2
Ntp184
Rp185
(dp186
g6
(lp187
g0
(g21
g2
Ntp188
Rp189
(dp190
g25
I0
sg26
I1
sg27
I0
sbag0
(g21
g2
Ntp191
Rp192
(dp193
g25
I0
sg26
I2
sg27
I9
sbag0
(g21
g2
Ntp194
Rp195
(dp196
g25
I0
sg26
I3
sg27
I7
sbag0
(g21
g2
Ntp197
Rp198
(dp199
g25
I0
sg26
I4
sg27
I0
sbasg14
Nsbag0
(g16
g2
Ntp200
Rp201
(dp202
g6
(lp203
g0
(g21
g2
Ntp204
Rp205
(dp206
g25
I0
sg26
I1
sg27
I0
sbag0
(g21
g2
Ntp207
Rp208
(dp209
g25
I0
sg26
I2
sg27
I6
sbag0
(g21
g2
Ntp210
Rp211
(dp212
g25
I0
sg26
I3
sg27
I5
sbag0
(g21
g2
Ntp213
Rp214
(dp215
g25
I0
sg26
I4
sg27
I0
sbasg14
Nsbag0
(g16
g2
Ntp216
Rp217
(dp218
g6
(lp219
g0
(g21
g2
Ntp220
Rp221
(dp222
g25
I0
sg26
I1
sg27
I0
sbag0
(g21
g2
Ntp223
Rp224
(dp225
g25
I0
sg26
I2
sg27
I2
sbag0
(g21
g2
Ntp226
Rp227
(dp228
g25
I0
sg26
I3
sg27
I3
sbag0
(g21
g2
Ntp229
Rp230
(dp231
g25
I0
sg26
I4
sg27
I0
sbasg14
Nsbasbag0
(g8
g2
Ntp232
Rp233
(dp234
g12
I00
sg13
I00
sg14
Nsg6
(lp235
g0
(g16
g2
Ntp236
Rp237
(dp238
g6
(lp239
Nag0
(g21
g2
Ntp240
Rp241
(dp242
g25
I0
sg26
I2
sg27
I3
sbag0
(g21
g2
Ntp243
Rp244
(dp245
g25
I0
sg26
I3
sg27
I2
sbag0
(g21
g2
Ntp246
Rp247
(dp248
g25
I0
sg26
I4
sg27
I0
sbasg14
S'Riff1'
p249
sbag0
(g16
g2
Ntp250
Rp251
(dp252
g6
(lp253
sg14
Nsbag0
(g16
g2
Ntp254
Rp255
(dp256
g6
(lp257
Nag0
(g21
g2
Ntp258
Rp259
(dp260
g25
I0
sg26
I2
sg27
I3
sbag0
(g21
g2
Ntp261
Rp262
(dp263
g25
I0
sg26
I3
sg27
I3
sbag0
(g21
g2
Ntp264
Rp265
(dp266
g25
I0
sg26
I4
sg27
I0
sbasg14
Nsbag0
(g16
g2
Ntp267
Rp268
(dp269
g6
(lp270
Nag0
(g21
g2
Ntp271
Rp272
(dp273
g25
I0
sg26
I2
sg27
I3
sbag0
(g21
g2
Ntp274
Rp275
(dp276
g25
I0
sg26
I3
sg27
I2
sbag0
(g21
g2
Ntp277
Rp278
(dp279
g25
I0
sg26
I4
sg27
I0
sbasg14
Nsbag0
(g16
g2
Ntp280
Rp281
(dp282
g6
(lp283
Nag0
(g21
g2
Ntp284
Rp285
(dp286
g25
I0
sg26
I2
sg27
I3
sbag0
(g21
g2
Ntp287
Rp288
(dp289
g25
I0
sg26
I3
sg27
I0
sbag0
(g21
g2
Ntp290
Rp291
(dp292
g25
I0
sg26
I4
sg27
I0
sbasg14
Nsbag0
(g16
g2
Ntp293
Rp294
(dp295
g6
(lp296
Nag0
(g21
g2
Ntp297
Rp298
(dp299
g25
I0
sg26
I2
sg27
I3
sbag0
(g21
g2
Ntp300
Rp301
(dp302
g25
I0
sg26
I3
sg27
I2
sbag0
(g21
g2
Ntp303
Rp304
(dp305
g25
I0
sg26
I4
sg27
I0
sbasg14
Nsbasbag0
(g8
g2
Ntp306
Rp307
(dp308
g12
I01
sg13
I00
sg14
Nsg6
(lp309
g0
(g16
g2
Ntp310
Rp311
(dp312
g6
(lp313
NaNaNaNag0
(g21
g2
Ntp314
Rp315
(dp316
g25
I0
sg26
I5
sg27
I4
sbag0
(g21
g2
Ntp317
Rp318
(dp319
g25
I0
sg26
I6
sg27
I2
sbasg14
S'F#'
p320
sbag0
(g16
g2
Ntp321
Rp322
(dp323
g6
(lp324
NaNaNaNag0
(g21
g2
Ntp325
Rp326
(dp327
g25
I0
sg26
I5
sg27
I4
sbag0
(g21
g2
Ntp328
Rp329
(dp330
g25
I0
sg26
I6
sg27
I3
sbasg14
Nsbag0
(g16
g2
Ntp331
Rp332
(dp333
g6
(lp334
NaNaNaNag0
(g21
g2
Ntp335
Rp336
(dp337
g25
I0
sg26
I5
sg27
I7
sbag0
(g21
g2
Ntp338
Rp339
(dp340
g25
I0
sg26
I6
sg27
I5
sbasg14
g162
sbag0
(g16
g2
Ntp341
Rp342
(dp343
g6
(lp344
NaNaNaNag0
(g21
g2
Ntp345
Rp346
(dp347
g25
I0
sg26
I5
sg27
I7
sbag0
(g21
g2
Ntp348
Rp349
(dp350
g25
I0
sg26
I6
sg27
I6
sbasg14
Nsbag0
(g16
g2
Ntp351
Rp352
(dp353
g6
(lp354
NaNaNaNag0
(g21
g2
Ntp355
Rp356
(dp357
g25
I0
sg26
I5
sg27
I2
sbag0
(g21
g2
Ntp358
Rp359
(dp360
g25
I0
sg26
I6
sg27
I0
sbasg14
S'E'
p361
sbag0
(g16
g2
Ntp362
Rp363
(dp364
g6
(lp365
NaNaNaNag0
(g21
g2
Ntp366
Rp367
(dp368
g25
I0
sg26
I5
sg27
I2
sbag0
(g21
g2
Ntp369
Rp370
(dp371
g25
I0
sg26
I6
sg27
I1
sbasg14
Nsbasbag0
(g8
g2
Ntp372
Rp373
(dp374
g12
I00
sg13
I00
sg14
Nsg6
(lp375
g0
(g16
g2
Ntp376
Rp377
(dp378
g6
(lp379
g0
(g21
g2
Ntp380
Rp381
(dp382
g25
I0
sg26
I1
sg27
I0
sbag0
(g21
g2
Ntp383
Rp384
(dp385
g25
I0
sg26
I2
sg27
I0
sbag0
(g21
g2
Ntp386
Rp387
(dp388
g25
I0
sg26
I3
sg27
I4
sbag0
(g21
g2
Ntp389
Rp390
(dp391
g25
I0
sg26
I4
sg27
I2
sbasg14
Nsbag0
(g16
g2
Ntp392
Rp393
(dp394
g6
(lp395
g0
(g21
g2
Ntp396
Rp397
(dp398
g25
I0
sg26
I1
sg27
I0
sbag0
(g21
g2
Ntp399
Rp400
(dp401
g25
I0
sg26
I2
sg27
I0
sbag0
(g21
g2
Ntp402
Rp403
(dp404
g25
I0
sg26
I3
sg27
I2
sbag0
(g21
g2
Ntp405
Rp406
(dp407
g25
I0
sg26
I4
sg27
I3
sbasg14
Nsbag0
(g16
g2
Ntp408
Rp409
(dp410
g6
(lp411
sg14
Nsbag0
(g16
g2
Ntp412
Rp413
(dp414
g6
(lp415
Nag0
(g21
g2
Ntp416
Rp417
(dp418
g25
I0
sg26
I2
sg27
I0
sbag0
(g21
g2
Ntp419
Rp420
(dp421
g25
I0
sg26
I3
sg27
I0
sbag0
(g21
g2
Ntp422
Rp423
(dp424
g25
I0
sg26
I4
sg27
I4
sbag0
(g21
g2
Ntp425
Rp426
(dp427
g25
I0
sg26
I5
sg27
I2
sbasg14
Nsbag0
(g16
g2
Ntp428
Rp429
(dp430
g6
(lp431
Nag0
(g21
g2
Ntp432
Rp433
(dp434
g25
I0
sg26
I2
sg27
I0
sbag0
(g21
g2
Ntp435
Rp436
(dp437
g25
I0
sg26
I3
sg27
I0
sbag0
(g21
g2
Ntp438
Rp439
(dp440
g25
I0
sg26
I4
sg27
I2
sbag0
(g21
g2
Ntp441
Rp442
(dp443
g25
I0
sg26
I5
sg27
I3
sbasg14
Nsbag0
(g16
g2
Ntp444
Rp445
(dp446
g6
(lp447
sg14
NsbasbasS'tuningIndex'
p448
I0
sg14
NsS'songName'
p449
S'Song8'
p450
sb.