ccopy_reg
_reconstructor
p0
(c__main__
pytabSong
p1
c__builtin__
object
p2
Ntp3
Rp4
(dp5
S'objects'
p6
(lp7
g0
(c__main__
pytabTrack
p8
g2
Ntp9
Rp10
(dp11
g6
(lp12
g0
(c__main__
pytabMeasure
p13
g2
Ntp14
Rp15
(dp16
S'pageBreak'
p17
I00
sg6
(lp18
g0
(c__main__
pytabBeat
p19
g2
Ntp20
Rp21
(dp22
g6
(lp23
sS'annotation'
p24
NsbasS'repeat'
p25
I00
sg24
NsbasS'trackName'
p26
S'Default'
p27
sS'songName'
p28
S'HotelC'
p29
sg24
NsbasS'tuningIndex'
p30
I0
sg28
S'Song-2.0'
p31
sg24
Nsb.