ccopy_reg
_reconstructor
p0
(c__main__
pytabSong
p1
c__builtin__
object
p2
Ntp3
Rp4
(dp5
S'objects'
p6
(lp7
g0
(c__main__
pytabMeasure
p8
g2
Ntp9
Rp10
(dp11
g6
(lp12
g0
(c__main__
pytabBeat
p13
g2
Ntp14
Rp15
(dp16
g6
(lp17
g0
(c__main__
pytabNote
p18
g2
Ntp19
Rp20
(dp21
S'noteType'
p22
I0
sS'string'
p23
I1
sS'fret'
p24
I5
sbaNaNag0
(g18
g2
Ntp25
Rp26
(dp27
g22
I0
sg23
I4
sg24
I0
sbasS'annotation'
p28
S'Intro 115bpm'
p29
sbag0
(g13
g2
Ntp30
Rp31
(dp32
g6
(lp33
Nag0
(g18
g2
Ntp34
Rp35
(dp36
g22
I0
sg23
I2
sg24
I8
sbasg28
Nsbag0
(g13
g2
Ntp37
Rp38
(dp39
g6
(lp40
Nag0
(g18
g2
Ntp41
Rp42
(dp43
g22
I0
sg23
I2
sg24
I7
sbasg28
Nsbag0
(g13
g2
Ntp44
Rp45
(dp46
g6
(lp47
Nag0
(g18
g2
Ntp48
Rp49
(dp50
g22
I0
sg23
I2
sg24
I5
sbag0
(g18
g2
Ntp51
Rp52
(dp53
g22
I0
sg23
I3
sg24
I0
sbasg28
Nsbag0
(g13
g2
Ntp54
Rp55
(dp56
g6
(lp57
Nag0
(g18
g2
Ntp58
Rp59
(dp60
g22
I0
sg23
I2
sg24
I7
sbasg28
Nsbag0
(g13
g2
Ntp61
Rp62
(dp63
g6
(lp64
NaNag0
(g18
g2
Ntp65
Rp66
(dp67
g22
I0
sg23
I3
sg24
I7
sbag0
(g18
g2
Ntp68
Rp69
(dp70
g22
I0
sg23
I4
sg24
I0
sbasg28
Nsbag0
(g13
g2
Ntp71
Rp72
(dp73
g6
(lp74
sg28
Nsbag0
(g13
g2
Ntp75
Rp76
(dp77
g6
(lp78
Nag0
(g18
g2
Ntp79
Rp80
(dp81
g22
I0
sg23
I2
sg24
I5
sbaNaNag0
(g18
g2
Ntp82
Rp83
(dp84
g22
I0
sg23
I5
sg24
I0
sbasg28
Nsbag0
(g13
g2
Ntp85
Rp86
(dp87
g6
(lp88
NaNag0
(g18
g2
Ntp89
Rp90
(dp91
g22
I0
sg23
I3
sg24
I7
sbasg28
Nsbag0
(g13
g2
Ntp92
Rp93
(dp94
g6
(lp95
NaNag0
(g18
g2
Ntp96
Rp97
(dp98
g22
I0
sg23
I3
sg24
I6
sbasg28
Nsbag0
(g13
g2
Ntp99
Rp100
(dp101
g6
(lp102
g0
(g18
g2
Ntp103
Rp104
(dp105
g22
I0
sg23
I1
sg24
I0
sbaNaNaNasg28
Nsbag0
(g13
g2
Ntp106
Rp107
(dp108
g6
(lp109
NaNaNag0
(g18
g2
Ntp110
Rp111
(dp112
g22
I0
sg23
I4
sg24
I7
sbasg28
NsbasS'pageBreak'
p113
I00
sg28
NsS'repeat'
p114
I01
sbag0
(g8
g2
Ntp115
Rp116
(dp117
g113
I00
sg114
I00
sg28
Nsg6
(lp118
g0
(g13
g2
Ntp119
Rp120
(dp121
g6
(lp122
g0
(g18
g2
Ntp123
Rp124
(dp125
g22
I0
sg23
I1
sg24
I10
sbaNag0
(g18
g2
Ntp126
Rp127
(dp128
g22
I0
sg23
I3
sg24
I0
sbasg28
Nsbag0
(g13
g2
Ntp129
Rp130
(dp131
g6
(lp132
g0
(g18
g2
Ntp133
Rp134
(dp135
g22
I0
sg23
I1
sg24
I8
sbasg28
Nsbag0
(g13
g2
Ntp136
Rp137
(dp138
g6
(lp139
g0
(g18
g2
Ntp140
Rp141
(dp142
g22
I0
sg23
I1
sg24
I7
sbasg28
Nsbag0
(g13
g2
Ntp143
Rp144
(dp145
g6
(lp146
Nag0
(g18
g2
Ntp147
Rp148
(dp149
g22
I0
sg23
I2
sg24
I10
sbasg28
Nsbag0
(g13
g2
Ntp150
Rp151
(dp152
g6
(lp153
g0
(g18
g2
Ntp154
Rp155
(dp156
g22
I0
sg23
I1
sg24
I7
sbaNaNaNasg28
Nsbag0
(g13
g2
Ntp157
Rp158
(dp159
g6
(lp160
Nag0
(g18
g2
Ntp161
Rp162
(dp163
g22
I0
sg23
I2
sg24
I8
sbaNag0
(g18
g2
Ntp164
Rp165
(dp166
g22
I0
sg23
I4
sg24
I0
sbasg28
Nsbag0
(g13
g2
Ntp167
Rp168
(dp169
g6
(lp170
Nag0
(g18
g2
Ntp171
Rp172
(dp173
g22
I0
sg23
I2
sg24
I7
sbaNag0
(g18
g2
Ntp174
Rp175
(dp176
g22
I0
sg23
I4
sg24
I7
sbasg28
Nsbag0
(g13
g2
Ntp177
Rp178
(dp179
g6
(lp180
Nag0
(g18
g2
Ntp181
Rp182
(dp183
g22
I0
sg23
I2
sg24
I8
sbasg28
Nsbag0
(g13
g2
Ntp184
Rp185
(dp186
g6
(lp187
Nag0
(g18
g2
Ntp188
Rp189
(dp190
g22
I0
sg23
I2
sg24
I10
sbaNaNasg28
Nsbag0
(g13
g2
Ntp191
Rp192
(dp193
g6
(lp194
g0
(g18
g2
Ntp195
Rp196
(dp197
g22
I0
sg23
I1
sg24
I7
sbaNaNasg28
Nsbag0
(g13
g2
Ntp198
Rp199
(dp200
g6
(lp201
g0
(g18
g2
Ntp202
Rp203
(dp204
g22
I0
sg23
I1
sg24
I8
sbaNag0
(g18
g2
Ntp205
Rp206
(dp207
g22
I0
sg23
I3
sg24
I7
sbasg28
Nsbasbag0
(g8
g2
Ntp208
Rp209
(dp210
g113
I01
sg114
I00
sg28
Nsg6
(lp211
g0
(g13
g2
Ntp212
Rp213
(dp214
g6
(lp215
NaNag0
(g18
g2
Ntp216
Rp217
(dp218
g22
I0
sg23
I3
sg24
I2
sbaNag0
(g18
g2
Ntp219
Rp220
(dp221
g22
I0
sg23
I5
sg24
I0
sbasg28
Nsbag0
(g13
g2
Ntp222
Rp223
(dp224
g6
(lp225
NaNag0
(g18
g2
Ntp226
Rp227
(dp228
g22
I0
sg23
I3
sg24
I4
sbasg28
Nsbag0
(g13
g2
Ntp229
Rp230
(dp231
g6
(lp232
Nag0
(g18
g2
Ntp233
Rp234
(dp235
g22
I0
sg23
I2
sg24
I2
sbaNasg28
Nsbag0
(g13
g2
Ntp236
Rp237
(dp238
g6
(lp239
Nag0
(g18
g2
Ntp240
Rp241
(dp242
g22
I0
sg23
I2
sg24
I3
sbaNasg28
Nsbag0
(g13
g2
Ntp243
Rp244
(dp245
g6
(lp246
g0
(g18
g2
Ntp247
Rp248
(dp249
g22
I0
sg23
I1
sg24
I0
sbaNaNaNag0
(g18
g2
Ntp250
Rp251
(dp252
g22
I0
sg23
I5
sg24
I0
sbasg28
Nsbag0
(g13
g2
Ntp253
Rp254
(dp255
g6
(lp256
Nag0
(g18
g2
Ntp257
Rp258
(dp259
g22
I0
sg23
I2
sg24
I3
sbasg28
Nsbag0
(g13
g2
Ntp260
Rp261
(dp262
g6
(lp263
Nag0
(g18
g2
Ntp264
Rp265
(dp266
g22
I0
sg23
I2
sg24
I2
sbasg28
Nsbag0
(g13
g2
Ntp267
Rp268
(dp269
g6
(lp270
Nag0
(g18
g2
Ntp271
Rp272
(dp273
g22
I0
sg23
I2
sg24
I0
sbaNaNaNaNasg28
Nsbag0
(g13
g2
Ntp274
Rp275
(dp276
g6
(lp277
g0
(g18
g2
Ntp278
Rp279
(dp280
g22
I0
sg23
I1
sg24
I0
sbag0
(g18
g2
Ntp281
Rp282
(dp283
g22
I0
sg23
I2
sg24
I0
sbaNaNag0
(g18
g2
Ntp284
Rp285
(dp286
g22
I0
sg23
I5
sg24
I3
sbasg28
Nsbag0
(g13
g2
Ntp287
Rp288
(dp289
g6
(lp290
g0
(g18
g2
Ntp291
Rp292
(dp293
g22
I0
sg23
I1
sg24
I3
sbag0
(g18
g2
Ntp294
Rp295
(dp296
g22
I0
sg23
I2
sg24
I3
sbaNag0
(g18
g2
Ntp297
Rp298
(dp299
g22
I0
sg23
I4
sg24
I0
sbaNaNasg28
Nsbag0
(g13
g2
Ntp300
Rp301
(dp302
g6
(lp303
g0
(g18
g2
Ntp304
Rp305
(dp306
g22
I0
sg23
I1
sg24
I5
sbag0
(g18
g2
Ntp307
Rp308
(dp309
g22
I0
sg23
I2
sg24
I5
sbag0
(g18
g2
Ntp310
Rp311
(dp312
g22
I0
sg23
I3
sg24
I2
sbag0
(g18
g2
Ntp313
Rp314
(dp315
g22
I0
sg23
I4
sg24
I2
sbag0
(g18
g2
Ntp316
Rp317
(dp318
g22
I0
sg23
I5
sg24
I0
sbaNasg28
Nsbasbag0
(g8
g2
Ntp319
Rp320
(dp321
g6
(lp322
g0
(g13
g2
Ntp323
Rp324
(dp325
g6
(lp326
g0
(g18
g2
Ntp327
Rp328
(dp329
g22
I0
sg23
I1
sg24
I5
sbag0
(g18
g2
Ntp330
Rp331
(dp332
g22
I0
sg23
I2
sg24
I5
sbag0
(g18
g2
Ntp333
Rp334
(dp335
g22
I0
sg23
I3
sg24
I2
sbag0
(g18
g2
Ntp336
Rp337
(dp338
g22
I0
sg23
I4
sg24
I2
sbag0
(g18
g2
Ntp339
Rp340
(dp341
g22
I0
sg23
I5
sg24
I0
sbasg28
S'Verse: A-A7'
p342
sbag0
(g13
g2
Ntp343
Rp344
(dp345
g6
(lp346
g0
(g18
g2
Ntp347
Rp348
(dp349
g22
I0
sg23
I1
sg24
I3
sbag0
(g18
g2
Ntp350
Rp351
(dp352
g22
I0
sg23
I2
sg24
I3
sbag0
(g18
g2
Ntp353
Rp354
(dp355
g22
I0
sg23
I3
sg24
I2
sbag0
(g18
g2
Ntp356
Rp357
(dp358
g22
I0
sg23
I4
sg24
I2
sbaNasg28
Nsbag0
(g13
g2
Ntp359
Rp360
(dp361
g6
(lp362
g0
(g18
g2
Ntp363
Rp364
(dp365
g22
I0
sg23
I1
sg24
I5
sbag0
(g18
g2
Ntp366
Rp367
(dp368
g22
I0
sg23
I2
sg24
I5
sbag0
(g18
g2
Ntp369
Rp370
(dp371
g22
I0
sg23
I3
sg24
I2
sbag0
(g18
g2
Ntp372
Rp373
(dp374
g22
I0
sg23
I4
sg24
I2
sbag0
(g18
g2
Ntp375
Rp376
(dp377
g22
I0
sg23
I5
sg24
I0
sbasg28
Nsbag0
(g13
g2
Ntp378
Rp379
(dp380
g6
(lp381
g0
(g18
g2
Ntp382
Rp383
(dp384
g22
I0
sg23
I1
sg24
I3
sbag0
(g18
g2
Ntp385
Rp386
(dp387
g22
I0
sg23
I2
sg24
I3
sbag0
(g18
g2
Ntp388
Rp389
(dp390
g22
I0
sg23
I3
sg24
I2
sbag0
(g18
g2
Ntp391
Rp392
(dp393
g22
I0
sg23
I4
sg24
I2
sbaNasg28
Nsbag0
(g13
g2
Ntp394
Rp395
(dp396
g6
(lp397
sg28
Nsbag0
(g13
g2
Ntp398
Rp399
(dp400
g6
(lp401
g0
(g18
g2
Ntp402
Rp403
(dp404
g22
I0
sg23
I1
sg24
I0
sbag0
(g18
g2
Ntp405
Rp406
(dp407
g22
I0
sg23
I2
sg24
I1
sbag0
(g18
g2
Ntp408
Rp409
(dp410
g22
I0
sg23
I3
sg24
I2
sbag0
(g18
g2
Ntp411
Rp412
(dp413
g22
I0
sg23
I4
sg24
I0
sbasg28
S'Dm'
p414
sbag0
(g13
g2
Ntp415
Rp416
(dp417
g6
(lp418
g0
(g18
g2
Ntp419
Rp420
(dp421
g22
I0
sg23
I1
sg24
I3
sbag0
(g18
g2
Ntp422
Rp423
(dp424
g22
I0
sg23
I2
sg24
I3
sbag0
(g18
g2
Ntp425
Rp426
(dp427
g22
I0
sg23
I3
sg24
I3
sbag0
(g18
g2
Ntp428
Rp429
(dp430
g22
I0
sg23
I4
sg24
I0
sbasg28
S'Gm'
p431
sbag0
(g13
g2
Ntp432
Rp433
(dp434
g6
(lp435
g0
(g18
g2
Ntp436
Rp437
(dp438
g22
I0
sg23
I1
sg24
I0
sbag0
(g18
g2
Ntp439
Rp440
(dp441
g22
I0
sg23
I2
sg24
I1
sbag0
(g18
g2
Ntp442
Rp443
(dp444
g22
I0
sg23
I3
sg24
I2
sbag0
(g18
g2
Ntp445
Rp446
(dp447
g22
I0
sg23
I4
sg24
I0
sbasg28
Nsbag0
(g13
g2
Ntp448
Rp449
(dp450
g6
(lp451
g0
(g18
g2
Ntp452
Rp453
(dp454
g22
I0
sg23
I1
sg24
I3
sbag0
(g18
g2
Ntp455
Rp456
(dp457
g22
I0
sg23
I2
sg24
I3
sbag0
(g18
g2
Ntp458
Rp459
(dp460
g22
I0
sg23
I3
sg24
I3
sbag0
(g18
g2
Ntp461
Rp462
(dp463
g22
I0
sg23
I4
sg24
I0
sbasg28
Nsbag0
(g13
g2
Ntp464
Rp465
(dp466
g6
(lp467
sg28
Nsbag0
(g13
g2
Ntp468
Rp469
(dp470
g6
(lp471
g0
(g18
g2
Ntp472
Rp473
(dp474
g22
I0
sg23
I1
sg24
I0
sbag0
(g18
g2
Ntp475
Rp476
(dp477
g22
I0
sg23
I2
sg24
I1
sbag0
(g18
g2
Ntp478
Rp479
(dp480
g22
I0
sg23
I3
sg24
I2
sbag0
(g18
g2
Ntp481
Rp482
(dp483
g22
I0
sg23
I4
sg24
I3
sbaNasg28
S'F'
p484
sbag0
(g13
g2
Ntp485
Rp486
(dp487
g6
(lp488
g0
(g18
g2
Ntp489
Rp490
(dp491
g22
I0
sg23
I1
sg24
I0
sbag0
(g18
g2
Ntp492
Rp493
(dp494
g22
I0
sg23
I2
sg24
I3
sbag0
(g18
g2
Ntp495
Rp496
(dp497
g22
I0
sg23
I3
sg24
I0
sbag0
(g18
g2
Ntp498
Rp499
(dp500
g22
I0
sg23
I4
sg24
I2
sbaNaNasg28
S'Em'
p501
sbag0
(g13
g2
Ntp502
Rp503
(dp504
g6
(lp505
sg28
Nsbag0
(g13
g2
Ntp506
Rp507
(dp508
g6
(lp509
g0
(g18
g2
Ntp510
Rp511
(dp512
g22
I0
sg23
I1
sg24
I0
sbag0
(g18
g2
Ntp513
Rp514
(dp515
g22
I0
sg23
I2
sg24
I6
sbag0
(g18
g2
Ntp516
Rp517
(dp518
g22
I0
sg23
I3
sg24
I5
sbag0
(g18
g2
Ntp519
Rp520
(dp521
g22
I0
sg23
I4
sg24
I0
sbaNag0
(g18
g2
Ntp522
Rp523
(dp524
g22
I0
sg23
I6
sg24
I6
sbasg28
S'Bb'
p525
sbag0
(g13
g2
Ntp526
Rp527
(dp528
g6
(lp529
Nag0
(g18
g2
Ntp530
Rp531
(dp532
g22
I0
sg23
I2
sg24
I5
sbag0
(g18
g2
Ntp533
Rp534
(dp535
g22
I0
sg23
I3
sg24
I4
sbag0
(g18
g2
Ntp536
Rp537
(dp538
g22
I0
sg23
I4
sg24
I5
sbag0
(g18
g2
Ntp539
Rp540
(dp541
g22
I0
sg23
I5
sg24
I3
sbasg28
S'C'
p542
sbasg113
I01
sg28
Nsg114
I01
sbag0
(g8
g2
Ntp543
Rp544
(dp545
g6
(lp546
g0
(g13
g2
Ntp547
Rp548
(dp549
g6
(lp550
g0
(g18
g2
Ntp551
Rp552
(dp553
g22
I0
sg23
I1
sg24
I0
sbag0
(g18
g2
Ntp554
Rp555
(dp556
g22
I0
sg23
I2
sg24
I6
sbag0
(g18
g2
Ntp557
Rp558
(dp559
g22
I0
sg23
I3
sg24
I5
sbag0
(g18
g2
Ntp560
Rp561
(dp562
g22
I0
sg23
I4
sg24
I0
sbaNag0
(g18
g2
Ntp563
Rp564
(dp565
g22
I0
sg23
I6
sg24
I6
sbasg28
S'Chorus'
p566
sbag0
(g13
g2
Ntp567
Rp568
(dp569
g6
(lp570
Nag0
(g18
g2
Ntp571
Rp572
(dp573
g22
I0
sg23
I2
sg24
I5
sbag0
(g18
g2
Ntp574
Rp575
(dp576
g22
I0
sg23
I3
sg24
I5
sbag0
(g18
g2
Ntp577
Rp578
(dp579
g22
I0
sg23
I4
sg24
I3
sbasg28
Nsbag0
(g13
g2
Ntp580
Rp581
(dp582
g6
(lp583
g0
(g18
g2
Ntp584
Rp585
(dp586
g22
I0
sg23
I1
sg24
I0
sbag0
(g18
g2
Ntp587
Rp588
(dp589
g22
I0
sg23
I2
sg24
I3
sbag0
(g18
g2
Ntp590
Rp591
(dp592
g22
I0
sg23
I3
sg24
I2
sbag0
(g18
g2
Ntp593
Rp594
(dp595
g22
I0
sg23
I4
sg24
I0
sbasg28
Nsbag0
(g13
g2
Ntp596
Rp597
(dp598
g6
(lp599
sg28
Nsbag0
(g13
g2
Ntp600
Rp601
(dp602
g6
(lp603
g0
(g18
g2
Ntp604
Rp605
(dp606
g22
I0
sg23
I1
sg24
I0
sbag0
(g18
g2
Ntp607
Rp608
(dp609
g22
I0
sg23
I2
sg24
I6
sbag0
(g18
g2
Ntp610
Rp611
(dp612
g22
I0
sg23
I3
sg24
I5
sbag0
(g18
g2
Ntp613
Rp614
(dp615
g22
I0
sg23
I4
sg24
I0
sbaNag0
(g18
g2
Ntp616
Rp617
(dp618
g22
I0
sg23
I6
sg24
I6
sbasg28
S'Bb'
p619
sbag0
(g13
g2
Ntp620
Rp621
(dp622
g6
(lp623
g0
(g18
g2
Ntp624
Rp625
(dp626
g22
I0
sg23
I1
sg24
I0
sbag0
(g18
g2
Ntp627
Rp628
(dp629
g22
I0
sg23
I2
sg24
I2
sbag0
(g18
g2
Ntp630
Rp631
(dp632
g22
I0
sg23
I3
sg24
I0
sbag0
(g18
g2
Ntp633
Rp634
(dp635
g22
I0
sg23
I4
sg24
I2
sbag0
(g18
g2
Ntp636
Rp637
(dp638
g22
I0
sg23
I5
sg24
I0
sbasg28
S'A7'
p639
sbag0
(g13
g2
Ntp640
Rp641
(dp642
g6
(lp643
g0
(g18
g2
Ntp644
Rp645
(dp646
g22
I0
sg23
I1
sg24
I0
sbag0
(g18
g2
Ntp647
Rp648
(dp649
g22
I0
sg23
I2
sg24
I3
sbag0
(g18
g2
Ntp650
Rp651
(dp652
g22
I0
sg23
I3
sg24
I2
sbag0
(g18
g2
Ntp653
Rp654
(dp655
g22
I0
sg23
I4
sg24
I0
sbaNaNasg28
S'D2'
p656
sbasg113
I01
sg28
Nsg114
I00
sbag0
(g8
g2
Ntp657
Rp658
(dp659
g113
I00
sg114
I00
sg28
Nsg6
(lp660
g0
(g13
g2
Ntp661
Rp662
(dp663
g6
(lp664
g0
(g18
g2
Ntp665
Rp666
(dp667
g22
I0
sg23
I1
sg24
I0
sbag0
(g18
g2
Ntp668
Rp669
(dp670
g22
I0
sg23
I2
sg24
I10
sbag0
(g18
g2
Ntp671
Rp672
(dp673
g22
I0
sg23
I3
sg24
I10
sbag0
(g18
g2
Ntp674
Rp675
(dp676
g22
I0
sg23
I4
sg24
I0
sbaNag0
(g18
g2
Ntp677
Rp678
(dp679
g22
I0
sg23
I6
sg24
I10
sbasg28
S'Bridge'
p680
sbag0
(g13
g2
Ntp681
Rp682
(dp683
g6
(lp684
g0
(g18
g2
Ntp685
Rp686
(dp687
g22
I0
sg23
I1
sg24
I0
sbag0
(g18
g2
Ntp688
Rp689
(dp690
g22
I0
sg23
I2
sg24
I6
sbag0
(g18
g2
Ntp691
Rp692
(dp693
g22
I0
sg23
I3
sg24
I5
sbag0
(g18
g2
Ntp694
Rp695
(dp696
g22
I0
sg23
I4
sg24
I0
sbaNag0
(g18
g2
Ntp697
Rp698
(dp699
g22
I0
sg23
I6
sg24
I6
sbasg28
Nsbag0
(g13
g2
Ntp700
Rp701
(dp702
g6
(lp703
g0
(g18
g2
Ntp704
Rp705
(dp706
g22
I0
sg23
I1
sg24
I0
sbag0
(g18
g2
Ntp707
Rp708
(dp709
g22
I0
sg23
I2
sg24
I10
sbag0
(g18
g2
Ntp710
Rp711
(dp712
g22
I0
sg23
I3
sg24
I10
sbag0
(g18
g2
Ntp713
Rp714
(dp715
g22
I0
sg23
I4
sg24
I0
sbaNag0
(g18
g2
Ntp716
Rp717
(dp718
g22
I0
sg23
I6
sg24
I10
sbasg28
g680
sbag0
(g13
g2
Ntp719
Rp720
(dp721
g6
(lp722
g0
(g18
g2
Ntp723
Rp724
(dp725
g22
I0
sg23
I1
sg24
I0
sbag0
(g18
g2
Ntp726
Rp727
(dp728
g22
I0
sg23
I2
sg24
I6
sbag0
(g18
g2
Ntp729
Rp730
(dp731
g22
I0
sg23
I3
sg24
I5
sbag0
(g18
g2
Ntp732
Rp733
(dp734
g22
I0
sg23
I4
sg24
I0
sbaNag0
(g18
g2
Ntp735
Rp736
(dp737
g22
I0
sg23
I6
sg24
I6
sbasg28
Nsbag0
(g13
g2
Ntp738
Rp739
(dp740
g6
(lp741
sg28
Nsbag0
(g13
g2
Ntp742
Rp743
(dp744
g6
(lp745
g0
(g18
g2
Ntp746
Rp747
(dp748
g22
I0
sg23
I1
sg24
I0
sbag0
(g18
g2
Ntp749
Rp750
(dp751
g22
I0
sg23
I2
sg24
I10
sbag0
(g18
g2
Ntp752
Rp753
(dp754
g22
I0
sg23
I3
sg24
I10
sbag0
(g18
g2
Ntp755
Rp756
(dp757
g22
I0
sg23
I4
sg24
I0
sbag0
(g18
g2
Ntp758
Rp759
(dp760
g22
I0
sg23
I5
sg24
I0
sbag0
(g18
g2
Ntp761
Rp762
(dp763
g22
I0
sg23
I6
sg24
I10
sbasg28
S'Dm'
p764
sbag0
(g13
g2
Ntp765
Rp766
(dp767
g6
(lp768
g0
(g18
g2
Ntp769
Rp770
(dp771
g22
I0
sg23
I1
sg24
I0
sbag0
(g18
g2
Ntp772
Rp773
(dp774
g22
I0
sg23
I2
sg24
I8
sbag0
(g18
g2
Ntp775
Rp776
(dp777
g22
I0
sg23
I3
sg24
I9
sbaNaNag0
(g18
g2
Ntp778
Rp779
(dp780
g22
I0
sg23
I6
sg24
I10
sbasg28
Nsbag0
(g13
g2
Ntp781
Rp782
(dp783
g6
(lp784
g0
(g18
g2
Ntp785
Rp786
(dp787
g22
I0
sg23
I1
sg24
I0
sbag0
(g18
g2
Ntp788
Rp789
(dp790
g22
I0
sg23
I2
sg24
I6
sbag0
(g18
g2
Ntp791
Rp792
(dp793
g22
I0
sg23
I3
sg24
I5
sbag0
(g18
g2
Ntp794
Rp795
(dp796
g22
I0
sg23
I4
sg24
I0
sbaNag0
(g18
g2
Ntp797
Rp798
(dp799
g22
I0
sg23
I6
sg24
I6
sbasg28
Nsbasbag0
(g8
g2
Ntp800
Rp801
(dp802
g6
(lp803
g0
(g13
g2
Ntp804
Rp805
(dp806
g6
(lp807
g0
(g18
g2
Ntp808
Rp809
(dp810
g22
I0
sg23
I1
sg24
I0
sbag0
(g18
g2
Ntp811
Rp812
(dp813
g22
I0
sg23
I2
sg24
I0
sbag0
(g18
g2
Ntp814
Rp815
(dp816
g22
I0
sg23
I3
sg24
I6
sbag0
(g18
g2
Ntp817
Rp818
(dp819
g22
I0
sg23
I4
sg24
I7
sbag0
(g18
g2
Ntp820
Rp821
(dp822
g22
I0
sg23
I5
sg24
I0
sbasg28
Nsbag0
(g13
g2
Ntp823
Rp824
(dp825
g6
(lp826
g0
(g18
g2
Ntp827
Rp828
(dp829
g22
I0
sg23
I1
sg24
I0
sbag0
(g18
g2
Ntp830
Rp831
(dp832
g22
I0
sg23
I2
sg24
I0
sbag0
(g18
g2
Ntp833
Rp834
(dp835
g22
I0
sg23
I3
sg24
I7
sbag0
(g18
g2
Ntp836
Rp837
(dp838
g22
I0
sg23
I4
sg24
I5
sbasg28
Nsbag0
(g13
g2
Ntp839
Rp840
(dp841
g6
(lp842
g0
(g18
g2
Ntp843
Rp844
(dp845
g22
I0
sg23
I1
sg24
I0
sbag0
(g18
g2
Ntp846
Rp847
(dp848
g22
I0
sg23
I2
sg24
I5
sbag0
(g18
g2
Ntp849
Rp850
(dp851
g22
I0
sg23
I3
sg24
I5
sbag0
(g18
g2
Ntp852
Rp853
(dp854
g22
I0
sg23
I4
sg24
I3
sbasg28
Nsbag0
(g13
g2
Ntp855
Rp856
(dp857
g6
(lp858
g0
(g18
g2
Ntp859
Rp860
(dp861
g22
I0
sg23
I1
sg24
I0
sbag0
(g18
g2
Ntp862
Rp863
(dp864
g22
I0
sg23
I2
sg24
I8
sbag0
(g18
g2
Ntp865
Rp866
(dp867
g22
I0
sg23
I3
sg24
I7
sbag0
(g18
g2
Ntp868
Rp869
(dp870
g22
I0
sg23
I4
sg24
I5
sbasg28
Nsbasg113
I00
sg28
S'Out A'
p871
sg114
I00
sbag0
(g8
g2
Ntp872
Rp873
(dp874
g6
(lp875
g0
(g13
g2
Ntp876
Rp877
(dp878
g6
(lp879
sg28
Nsbasg113
I00
sg28
Nsg114
I00
sbasS'tuningIndex'
p880
I0
sg28
NsS'songName'
p881
S'Song1'
p882
sb.