ccopy_reg
_reconstructor
p0
(c__main__
pytabSong
p1
c__builtin__
object
p2
Ntp3
Rp4
(dp5
S'objects'
p6
(lp7
g0
(c__main__
pytabMeasure
p8
g2
Ntp9
Rp10
(dp11
S'pageBreak'
p12
I01
sS'repeat'
p13
I00
sS'annotation'
p14
Nsg6
(lp15
g0
(c__main__
pytabBeat
p16
g2
Ntp17
Rp18
(dp19
g6
(lp20
NaNag0
(c__main__
pytabNote
p21
g2
Ntp22
Rp23
(dp24
S'noteType'
p25
I0
sS'string'
p26
I3
sS'fret'
p27
I8
sbag0
(g21
g2
Ntp28
Rp29
(dp30
g25
I0
sg26
I4
sg27
I7
sbag0
(g21
g2
Ntp31
Rp32
(dp33
g25
I0
sg26
I5
sg27
I0
sbasg14
S'Intro'
p34
sbag0
(g16
g2
Ntp35
Rp36
(dp37
g6
(lp38
NaNag0
(g21
g2
Ntp39
Rp40
(dp41
g25
I0
sg26
I3
sg27
I9
sbag0
(g21
g2
Ntp42
Rp43
(dp44
g25
I0
sg26
I4
sg27
I7
sbag0
(g21
g2
Ntp45
Rp46
(dp47
g25
I0
sg26
I5
sg27
I0
sbasg14
Nsbag0
(g16
g2
Ntp48
Rp49
(dp50
g6
(lp51
sg14
Nsbag0
(g16
g2
Ntp52
Rp53
(dp54
g6
(lp55
NaNag0
(g21
g2
Ntp56
Rp57
(dp58
g25
I0
sg26
I3
sg27
I5
sbag0
(g21
g2
Ntp59
Rp60
(dp61
g25
I0
sg26
I4
sg27
I3
sbag0
(g21
g2
Ntp62
Rp63
(dp64
g25
I0
sg26
I5
sg27
I0
sbasg14
Nsbag0
(g16
g2
Ntp65
Rp66
(dp67
g6
(lp68
NaNag0
(g21
g2
Ntp69
Rp70
(dp71
g25
I0
sg26
I3
sg27
I7
sbag0
(g21
g2
Ntp72
Rp73
(dp74
g25
I0
sg26
I4
sg27
I5
sbag0
(g21
g2
Ntp75
Rp76
(dp77
g25
I0
sg26
I5
sg27
I0
sbasg14
Nsbag0
(g16
g2
Ntp78
Rp79
(dp80
g6
(lp81
NaNag0
(g21
g2
Ntp82
Rp83
(dp84
g25
I0
sg26
I3
sg27
I4
sbag0
(g21
g2
Ntp85
Rp86
(dp87
g25
I0
sg26
I4
sg27
I2
sbag0
(g21
g2
Ntp88
Rp89
(dp90
g25
I0
sg26
I5
sg27
I0
sbasg14
Nsbag0
(g16
g2
Ntp91
Rp92
(dp93
g6
(lp94
NaNag0
(g21
g2
Ntp95
Rp96
(dp97
g25
I0
sg26
I3
sg27
I2
sbag0
(g21
g2
Ntp98
Rp99
(dp100
g25
I0
sg26
I4
sg27
I2
sbag0
(g21
g2
Ntp101
Rp102
(dp103
g25
I0
sg26
I5
sg27
I0
sbasg14
Nsbasbag0
(g8
g2
Ntp104
Rp105
(dp106
g12
I01
sg6
(lp107
g0
(g16
g2
Ntp108
Rp109
(dp110
g6
(lp111
NaNag0
(g21
g2
Ntp112
Rp113
(dp114
g25
I0
sg26
I3
sg27
I2
sbag0
(g21
g2
Ntp115
Rp116
(dp117
g25
I0
sg26
I4
sg27
I2
sbag0
(g21
g2
Ntp118
Rp119
(dp120
g25
I0
sg26
I5
sg27
I0
sbasg14
S'Riff'
p121
sbag0
(g16
g2
Ntp122
Rp123
(dp124
g6
(lp125
NaNaNaNasg14
Nsbag0
(g16
g2
Ntp126
Rp127
(dp128
g6
(lp129
NaNaNag0
(g21
g2
Ntp130
Rp131
(dp132
g25
I0
sg26
I4
sg27
I2
sbasg14
Nsbag0
(g16
g2
Ntp133
Rp134
(dp135
g6
(lp136
NaNaNag0
(g21
g2
Ntp137
Rp138
(dp139
g25
I0
sg26
I4
sg27
I3
sbasg14
Nsbag0
(g16
g2
Ntp140
Rp141
(dp142
g6
(lp143
NaNaNag0
(g21
g2
Ntp144
Rp145
(dp146
g25
I0
sg26
I4
sg27
I2
sbasg14
Nsbag0
(g16
g2
Ntp147
Rp148
(dp149
g6
(lp150
NaNaNaNag0
(g21
g2
Ntp151
Rp152
(dp153
g25
I0
sg26
I5
sg27
I5
sbasg14
Nsbag0
(g16
g2
Ntp154
Rp155
(dp156
g6
(lp157
NaNaNaNag0
(g21
g2
Ntp158
Rp159
(dp160
g25
I0
sg26
I5
sg27
I3
sbasg14
Nsbag0
(g16
g2
Ntp161
Rp162
(dp163
g6
(lp164
NaNaNaNag0
(g21
g2
Ntp165
Rp166
(dp167
g25
I0
sg26
I5
sg27
I5
sbasg14
Nsbag0
(g16
g2
Ntp168
Rp169
(dp170
g6
(lp171
NaNaNag0
(g21
g2
Ntp172
Rp173
(dp174
g25
I0
sg26
I4
sg27
I2
sbasg14
Nsbag0
(g16
g2
Ntp175
Rp176
(dp177
g6
(lp178
NaNaNag0
(g21
g2
Ntp179
Rp180
(dp181
g25
I0
sg26
I4
sg27
I3
sbasg14
Nsbasg14
Nsg13
I00
sbag0
(g8
g2
Ntp182
Rp183
(dp184
g12
I00
sg13
I01
sg14
Nsg6
(lp185
g0
(g16
g2
Ntp186
Rp187
(dp188
g6
(lp189
NaNag0
(g21
g2
Ntp190
Rp191
(dp192
g25
I0
sg26
I3
sg27
I2
sbag0
(g21
g2
Ntp193
Rp194
(dp195
g25
I0
sg26
I4
sg27
I2
sbag0
(g21
g2
Ntp196
Rp197
(dp198
g25
I0
sg26
I5
sg27
I0
sbasg14
Nsbag0
(g16
g2
Ntp199
Rp200
(dp201
g6
(lp202
NaNaNaNasg14
Nsbag0
(g16
g2
Ntp203
Rp204
(dp205
g6
(lp206
NaNaNag0
(g21
g2
Ntp207
Rp208
(dp209
g25
I0
sg26
I4
sg27
I2
sbasg14
Nsbag0
(g16
g2
Ntp210
Rp211
(dp212
g6
(lp213
NaNaNag0
(g21
g2
Ntp214
Rp215
(dp216
g25
I0
sg26
I4
sg27
I3
sbasg14
Nsbag0
(g16
g2
Ntp217
Rp218
(dp219
g6
(lp220
NaNaNag0
(g21
g2
Ntp221
Rp222
(dp223
g25
I0
sg26
I4
sg27
I2
sbasg14
Nsbag0
(g16
g2
Ntp224
Rp225
(dp226
g6
(lp227
NaNaNag0
(g21
g2
Ntp228
Rp229
(dp230
g25
I0
sg26
I4
sg27
I0
sbaNasg14
Nsbag0
(g16
g2
Ntp231
Rp232
(dp233
g6
(lp234
NaNag0
(g21
g2
Ntp235
Rp236
(dp237
g25
I0
sg26
I3
sg27
I1
sbasg14
Nsbag0
(g16
g2
Ntp238
Rp239
(dp240
g6
(lp241
NaNag0
(g21
g2
Ntp242
Rp243
(dp244
g25
I0
sg26
I3
sg27
I0
sbasg14
Nsbag0
(g16
g2
Ntp245
Rp246
(dp247
g6
(lp248
NaNaNag0
(g21
g2
Ntp249
Rp250
(dp251
g25
I0
sg26
I4
sg27
I1
sbasg14
Nsbag0
(g16
g2
Ntp252
Rp253
(dp254
g6
(lp255
NaNaNag0
(g21
g2
Ntp256
Rp257
(dp258
g25
I0
sg26
I4
sg27
I0
sbasg14
Nsbasbag0
(g8
g2
Ntp259
Rp260
(dp261
g12
I00
sg6
(lp262
g0
(g16
g2
Ntp263
Rp264
(dp265
g6
(lp266
NaNag0
(g21
g2
Ntp267
Rp268
(dp269
g25
I0
sg26
I3
sg27
I5
sbag0
(g21
g2
Ntp270
Rp271
(dp272
g25
I0
sg26
I4
sg27
I5
sbaNasg14
Nsbag0
(g16
g2
Ntp273
Rp274
(dp275
g6
(lp276
NaNag0
(g21
g2
Ntp277
Rp278
(dp279
g25
I0
sg26
I3
sg27
I6
sbag0
(g21
g2
Ntp280
Rp281
(dp282
g25
I0
sg26
I4
sg27
I6
sbaNasg14
Nsbasg14
Nsg13
I00
sbag0
(g8
g2
Ntp283
Rp284
(dp285
g6
(lp286
g0
(g16
g2
Ntp287
Rp288
(dp289
g6
(lp290
NaNag0
(g21
g2
Ntp291
Rp292
(dp293
g25
I0
sg26
I3
sg27
I5
sbag0
(g21
g2
Ntp294
Rp295
(dp296
g25
I0
sg26
I4
sg27
I5
sbag0
(g21
g2
Ntp297
Rp298
(dp299
g25
I0
sg26
I5
sg27
I3
sbasg14
S'V'
p300
sbag0
(g16
g2
Ntp301
Rp302
(dp303
g6
(lp304
NaNag0
(g21
g2
Ntp305
Rp306
(dp307
g25
I0
sg26
I3
sg27
I3
sbag0
(g21
g2
Ntp308
Rp309
(dp310
g25
I0
sg26
I4
sg27
I3
sbasg14
Nsbag0
(g16
g2
Ntp311
Rp312
(dp313
g6
(lp314
NaNag0
(g21
g2
Ntp315
Rp316
(dp317
g25
I0
sg26
I3
sg27
I5
sbag0
(g21
g2
Ntp318
Rp319
(dp320
g25
I0
sg26
I4
sg27
I5
sbasg14
Nsbag0
(g16
g2
Ntp321
Rp322
(dp323
g6
(lp324
sg14
Nsbag0
(g16
g2
Ntp325
Rp326
(dp327
g6
(lp328
NaNag0
(g21
g2
Ntp329
Rp330
(dp331
g25
I0
sg26
I3
sg27
I8
sbag0
(g21
g2
Ntp332
Rp333
(dp334
g25
I0
sg26
I4
sg27
I8
sbag0
(g21
g2
Ntp335
Rp336
(dp337
g25
I0
sg26
I5
sg27
I6
sbasg14
Nsbag0
(g16
g2
Ntp338
Rp339
(dp340
g6
(lp341
sg14
Nsbag0
(g16
g2
Ntp342
Rp343
(dp344
g6
(lp345
NaNag0
(g21
g2
Ntp346
Rp347
(dp348
g25
I0
sg26
I3
sg27
I3
sbag0
(g21
g2
Ntp349
Rp350
(dp351
g25
I0
sg26
I4
sg27
I3
sbag0
(g21
g2
Ntp352
Rp353
(dp354
g25
I0
sg26
I5
sg27
I1
sbasg14
Nsbasg12
I01
sg14
Nsg13
I00
sbag0
(g8
g2
Ntp355
Rp356
(dp357
g12
I00
sg6
(lp358
g0
(g16
g2
Ntp359
Rp360
(dp361
g6
(lp362
g0
(g21
g2
Ntp363
Rp364
(dp365
g25
I0
sg26
I1
sg27
I5
sbag0
(g21
g2
Ntp366
Rp367
(dp368
g25
I0
sg26
I2
sg27
I5
sbag0
(g21
g2
Ntp369
Rp370
(dp371
g25
I0
sg26
I3
sg27
I5
sbag0
(g21
g2
Ntp372
Rp373
(dp374
g25
I0
sg26
I4
sg27
I7
sbasg14
S'Solo'
p375
sbag0
(g16
g2
Ntp376
Rp377
(dp378
g6
(lp379
sg14
Nsbag0
(g16
g2
Ntp380
Rp381
(dp382
g6
(lp383
NaNag0
(g21
g2
Ntp384
Rp385
(dp386
g25
I1
sg26
I3
sg27
I7
sbasg14
Nsbag0
(g16
g2
Ntp387
Rp388
(dp389
g6
(lp390
NaNag0
(g21
g2
Ntp391
Rp392
(dp393
g25
I0
sg26
I3
sg27
I7
sbasg14
Nsbag0
(g16
g2
Ntp394
Rp395
(dp396
g6
(lp397
NaNag0
(g21
g2
Ntp398
Rp399
(dp400
g25
I0
sg26
I3
sg27
I5
sbasg14
Nsbag0
(g16
g2
Ntp401
Rp402
(dp403
g6
(lp404
Nag0
(g21
g2
Ntp405
Rp406
(dp407
g25
I0
sg26
I2
sg27
I3
sbag0
(g21
g2
Ntp408
Rp409
(dp410
g25
I0
sg26
I3
sg27
I4
sbag0
(g21
g2
Ntp411
Rp412
(dp413
g25
I0
sg26
I4
sg27
I5
sbag0
(g21
g2
Ntp414
Rp415
(dp416
g25
I0
sg26
I5
sg27
I0
sbasg14
Nsbag0
(g16
g2
Ntp417
Rp418
(dp419
g6
(lp420
sg14
Nsbag0
(g16
g2
Ntp421
Rp422
(dp423
g6
(lp424
Nag0
(g21
g2
Ntp425
Rp426
(dp427
g25
I0
sg26
I2
sg27
I1
sbag0
(g21
g2
Ntp428
Rp429
(dp430
g25
I0
sg26
I3
sg27
I2
sbag0
(g21
g2
Ntp431
Rp432
(dp433
g25
I0
sg26
I4
sg27
I3
sbasg14
Nsbag0
(g16
g2
Ntp434
Rp435
(dp436
g6
(lp437
sg14
Nsbag0
(g16
g2
Ntp438
Rp439
(dp440
g6
(lp441
Nag0
(g21
g2
Ntp442
Rp443
(dp444
g25
I0
sg26
I2
sg27
I2
sbag0
(g21
g2
Ntp445
Rp446
(dp447
g25
I0
sg26
I3
sg27
I2
sbag0
(g21
g2
Ntp448
Rp449
(dp450
g25
I0
sg26
I4
sg27
I2
sbasg14
Nsbasg14
Nsg13
I00
sbag0
(g8
g2
Ntp451
Rp452
(dp453
g6
(lp454
g0
(g16
g2
Ntp455
Rp456
(dp457
g6
(lp458
g0
(g21
g2
Ntp459
Rp460
(dp461
g25
I0
sg26
I1
sg27
I12
sbag0
(g21
g2
Ntp462
Rp463
(dp464
g25
I0
sg26
I2
sg27
I13
sbag0
(g21
g2
Ntp465
Rp466
(dp467
g25
I0
sg26
I3
sg27
I14
sbasg14
S'Interlude'
p468
sbag0
(g16
g2
Ntp469
Rp470
(dp471
g6
(lp472
g0
(g21
g2
Ntp473
Rp474
(dp475
g25
I0
sg26
I1
sg27
I10
sbag0
(g21
g2
Ntp476
Rp477
(dp478
g25
I0
sg26
I2
sg27
I12
sbag0
(g21
g2
Ntp479
Rp480
(dp481
g25
I0
sg26
I3
sg27
I12
sbasg14
Nsbag0
(g16
g2
Ntp482
Rp483
(dp484
g6
(lp485
g0
(g21
g2
Ntp486
Rp487
(dp488
g25
I0
sg26
I1
sg27
I8
sbag0
(g21
g2
Ntp489
Rp490
(dp491
g25
I0
sg26
I2
sg27
I10
sbag0
(g21
g2
Ntp492
Rp493
(dp494
g25
I0
sg26
I3
sg27
I10
sbasg14
Nsbag0
(g16
g2
Ntp495
Rp496
(dp497
g6
(lp498
g0
(g21
g2
Ntp499
Rp500
(dp501
g25
I0
sg26
I1
sg27
I7
sbag0
(g21
g2
Ntp502
Rp503
(dp504
g25
I0
sg26
I2
sg27
I9
sbag0
(g21
g2
Ntp505
Rp506
(dp507
g25
I0
sg26
I3
sg27
I9
sbasg14
Nsbag0
(g16
g2
Ntp508
Rp509
(dp510
g6
(lp511
sg14
Nsbag0
(g16
g2
Ntp512
Rp513
(dp514
g6
(lp515
g0
(g21
g2
Ntp516
Rp517
(dp518
g25
I0
sg26
I1
sg27
I8
sbag0
(g21
g2
Ntp519
Rp520
(dp521
g25
I0
sg26
I2
sg27
I10
sbag0
(g21
g2
Ntp522
Rp523
(dp524
g25
I0
sg26
I3
sg27
I10
sbasg14
Nsbag0
(g16
g2
Ntp525
Rp526
(dp527
g6
(lp528
g0
(g21
g2
Ntp529
Rp530
(dp531
g25
I0
sg26
I1
sg27
I7
sbag0
(g21
g2
Ntp532
Rp533
(dp534
g25
I0
sg26
I2
sg27
I8
sbag0
(g21
g2
Ntp535
Rp536
(dp537
g25
I0
sg26
I3
sg27
I9
sbasg14
Nsbag0
(g16
g2
Ntp538
Rp539
(dp540
g6
(lp541
g0
(g21
g2
Ntp542
Rp543
(dp544
g25
I0
sg26
I1
sg27
I5
sbag0
(g21
g2
Ntp545
Rp546
(dp547
g25
I0
sg26
I2
sg27
I6
sbag0
(g21
g2
Ntp548
Rp549
(dp550
g25
I0
sg26
I3
sg27
I7
sbasg14
Nsbag0
(g16
g2
Ntp551
Rp552
(dp553
g6
(lp554
g0
(g21
g2
Ntp555
Rp556
(dp557
g25
I0
sg26
I1
sg27
I7
sbag0
(g21
g2
Ntp558
Rp559
(dp560
g25
I0
sg26
I2
sg27
I8
sbag0
(g21
g2
Ntp561
Rp562
(dp563
g25
I0
sg26
I3
sg27
I9
sbasg14
Nsbasg12
I01
sg14
Nsg13
I00
sbag0
(g8
g2
Ntp564
Rp565
(dp566
g6
(lp567
g0
(g16
g2
Ntp568
Rp569
(dp570
g6
(lp571
g0
(g21
g2
Ntp572
Rp573
(dp574
g25
I0
sg26
I1
sg27
I12
sbag0
(g21
g2
Ntp575
Rp576
(dp577
g25
I0
sg26
I2
sg27
I10
sbag0
(g21
g2
Ntp578
Rp579
(dp580
g25
I0
sg26
I3
sg27
I11
sbag0
(g21
g2
Ntp581
Rp582
(dp583
g25
I0
sg26
I4
sg27
I9
sbag0
(g21
g2
Ntp584
Rp585
(dp586
g25
I0
sg26
I5
sg27
I0
sbasg14
S'idea'
p587
sbag0
(g16
g2
Ntp588
Rp589
(dp590
g6
(lp591
g0
(g21
g2
Ntp592
Rp593
(dp594
g25
I0
sg26
I1
sg27
I7
sbag0
(g21
g2
Ntp595
Rp596
(dp597
g25
I0
sg26
I2
sg27
I6
sbag0
(g21
g2
Ntp598
Rp599
(dp600
g25
I0
sg26
I3
sg27
I7
sbag0
(g21
g2
Ntp601
Rp602
(dp603
g25
I0
sg26
I4
sg27
I5
sbag0
(g21
g2
Ntp604
Rp605
(dp606
g25
I0
sg26
I5
sg27
I0
sbasg14
Nsbag0
(g16
g2
Ntp607
Rp608
(dp609
g6
(lp610
g0
(g21
g2
Ntp611
Rp612
(dp613
g25
I0
sg26
I1
sg27
I10
sbag0
(g21
g2
Ntp614
Rp615
(dp616
g25
I0
sg26
I2
sg27
I8
sbag0
(g21
g2
Ntp617
Rp618
(dp619
g25
I0
sg26
I3
sg27
I9
sbag0
(g21
g2
Ntp620
Rp621
(dp622
g25
I0
sg26
I4
sg27
I7
sbag0
(g21
g2
Ntp623
Rp624
(dp625
g25
I0
sg26
I5
sg27
I0
sbasg14
Nsbag0
(g16
g2
Ntp626
Rp627
(dp628
g6
(lp629
Nag0
(g21
g2
Ntp630
Rp631
(dp632
g25
I0
sg26
I2
sg27
I10
sbag0
(g21
g2
Ntp633
Rp634
(dp635
g25
I0
sg26
I3
sg27
I9
sbag0
(g21
g2
Ntp636
Rp637
(dp638
g25
I0
sg26
I4
sg27
I10
sbag0
(g21
g2
Ntp639
Rp640
(dp641
g25
I0
sg26
I5
sg27
I8
sbasg14
Nsbag0
(g16
g2
Ntp642
Rp643
(dp644
g6
(lp645
sg14
Nsbag0
(g16
g2
Ntp646
Rp647
(dp648
g6
(lp649
g0
(g21
g2
Ntp650
Rp651
(dp652
g25
I0
sg26
I1
sg27
I12
sbag0
(g21
g2
Ntp653
Rp654
(dp655
g25
I0
sg26
I2
sg27
I10
sbag0
(g21
g2
Ntp656
Rp657
(dp658
g25
I0
sg26
I3
sg27
I11
sbag0
(g21
g2
Ntp659
Rp660
(dp661
g25
I0
sg26
I4
sg27
I9
sbag0
(g21
g2
Ntp662
Rp663
(dp664
g25
I0
sg26
I5
sg27
I0
sbasg14
Nsbag0
(g16
g2
Ntp665
Rp666
(dp667
g6
(lp668
g0
(g21
g2
Ntp669
Rp670
(dp671
g25
I0
sg26
I1
sg27
I7
sbag0
(g21
g2
Ntp672
Rp673
(dp674
g25
I0
sg26
I2
sg27
I6
sbag0
(g21
g2
Ntp675
Rp676
(dp677
g25
I0
sg26
I3
sg27
I7
sbag0
(g21
g2
Ntp678
Rp679
(dp680
g25
I0
sg26
I4
sg27
I5
sbag0
(g21
g2
Ntp681
Rp682
(dp683
g25
I0
sg26
I5
sg27
I0
sbasg14
Nsbag0
(g16
g2
Ntp684
Rp685
(dp686
g6
(lp687
g0
(g21
g2
Ntp688
Rp689
(dp690
g25
I0
sg26
I1
sg27
I4
sbag0
(g21
g2
Ntp691
Rp692
(dp693
g25
I0
sg26
I2
sg27
I3
sbag0
(g21
g2
Ntp694
Rp695
(dp696
g25
I0
sg26
I3
sg27
I4
sbag0
(g21
g2
Ntp697
Rp698
(dp699
g25
I0
sg26
I4
sg27
I2
sbag0
(g21
g2
Ntp700
Rp701
(dp702
g25
I0
sg26
I5
sg27
I0
sbasg14
Nsbag0
(g16
g2
Ntp703
Rp704
(dp705
g6
(lp706
g0
(g21
g2
Ntp707
Rp708
(dp709
g25
I0
sg26
I1
sg27
I5
sbag0
(g21
g2
Ntp710
Rp711
(dp712
g25
I0
sg26
I2
sg27
I5
sbag0
(g21
g2
Ntp713
Rp714
(dp715
g25
I0
sg26
I3
sg27
I5
sbag0
(g21
g2
Ntp716
Rp717
(dp718
g25
I0
sg26
I4
sg27
I3
sbaNasg14
Nsbasg12
I01
sg14
Nsg13
I00
sbasS'tuningIndex'
p719
I0
sg14
NsS'songName'
p720
S'Song7'
p721
sb.