ccopy_reg
_reconstructor
p0
(c__main__
pytabSong
p1
c__builtin__
object
p2
Ntp3
Rp4
(dp5
S'objects'
p6
(lp7
g0
(c__main__
pytabMeasure
p8
g2
Ntp9
Rp10
(dp11
g6
(lp12
g0
(c__main__
pytabBeat
p13
g2
Ntp14
Rp15
(dp16
g6
(lp17
g0
(c__main__
pytabNote
p18
g2
Ntp19
Rp20
(dp21
S'noteType'
p22
I0
sS'string'
p23
I1
sS'fret'
p24
I0
sbag0
(g18
g2
Ntp25
Rp26
(dp27
g22
I0
sg23
I2
sg24
I3
sbag0
(g18
g2
Ntp28
Rp29
(dp30
g22
I1
sg23
I3
sg24
I2
sbag0
(g18
g2
Ntp31
Rp32
(dp33
g22
I0
sg23
I4
sg24
I0
sbag0
(g18
g2
Ntp34
Rp35
(dp36
g22
I0
sg23
I5
sg24
I0
sbag0
(g18
g2
Ntp37
Rp38
(dp39
g22
I0
sg23
I6
sg24
I0
sbasS'annotation'
p40
Nsbag0
(g13
g2
Ntp41
Rp42
(dp43
g6
(lp44
g0
(g18
g2
Ntp45
Rp46
(dp47
g22
I0
sg23
I1
sg24
I0
sbag0
(g18
g2
Ntp48
Rp49
(dp50
g22
I1
sg23
I2
sg24
I3
sbag0
(g18
g2
Ntp51
Rp52
(dp53
g22
I0
sg23
I3
sg24
I5
sbag0
(g18
g2
Ntp54
Rp55
(dp56
g22
I0
sg23
I4
sg24
I5
sbag0
(g18
g2
Ntp57
Rp58
(dp59
g22
I0
sg23
I5
sg24
I0
sbasg40
Nsbag0
(g13
g2
Ntp60
Rp61
(dp62
g6
(lp63
g0
(g18
g2
Ntp64
Rp65
(dp66
g22
I0
sg23
I1
sg24
I0
sbag0
(g18
g2
Ntp67
Rp68
(dp69
g22
I1
sg23
I2
sg24
I1
sbag0
(g18
g2
Ntp70
Rp71
(dp72
g22
I0
sg23
I3
sg24
I0
sbag0
(g18
g2
Ntp73
Rp74
(dp75
g22
I0
sg23
I4
sg24
I3
sbag0
(g18
g2
Ntp76
Rp77
(dp78
g22
I0
sg23
I5
sg24
I0
sbasg40
Nsbag0
(g13
g2
Ntp79
Rp80
(dp81
g6
(lp82
g0
(g18
g2
Ntp83
Rp84
(dp85
g22
I0
sg23
I1
sg24
I0
sbag0
(g18
g2
Ntp86
Rp87
(dp88
g22
I0
sg23
I2
sg24
I3
sbag0
(g18
g2
Ntp89
Rp90
(dp91
g22
I1
sg23
I3
sg24
I2
sbag0
(g18
g2
Ntp92
Rp93
(dp94
g22
I0
sg23
I4
sg24
I0
sbag0
(g18
g2
Ntp95
Rp96
(dp97
g22
I0
sg23
I5
sg24
I0
sbag0
(g18
g2
Ntp98
Rp99
(dp100
g22
I0
sg23
I6
sg24
I0
sbasg40
NsbasS'pageBreak'
p101
I01
sg40
NsS'repeat'
p102
I01
sbag0
(g8
g2
Ntp103
Rp104
(dp105
g101
I00
sg6
(lp106
g0
(g13
g2
Ntp107
Rp108
(dp109
g6
(lp110
g0
(g18
g2
Ntp111
Rp112
(dp113
g22
I0
sg23
I1
sg24
I0
sbag0
(g18
g2
Ntp114
Rp115
(dp116
g22
I0
sg23
I2
sg24
I3
sbag0
(g18
g2
Ntp117
Rp118
(dp119
g22
I0
sg23
I3
sg24
I0
sbag0
(g18
g2
Ntp120
Rp121
(dp122
g22
I0
sg23
I4
sg24
I3
sbag0
(g18
g2
Ntp123
Rp124
(dp125
g22
I0
sg23
I5
sg24
I1
sbaNasg40
Nsbag0
(g13
g2
Ntp126
Rp127
(dp128
g6
(lp129
NaNaNasg40
Nsbag0
(g13
g2
Ntp130
Rp131
(dp132
g6
(lp133
sg40
S'D2'
p134
sbag0
(g13
g2
Ntp135
Rp136
(dp137
g6
(lp138
g0
(g18
g2
Ntp139
Rp140
(dp141
g22
I0
sg23
I1
sg24
I0
sbag0
(g18
g2
Ntp142
Rp143
(dp144
g22
I0
sg23
I2
sg24
I3
sbag0
(g18
g2
Ntp145
Rp146
(dp147
g22
I0
sg23
I3
sg24
I0
sbag0
(g18
g2
Ntp148
Rp149
(dp150
g22
I0
sg23
I4
sg24
I3
sbag0
(g18
g2
Ntp151
Rp152
(dp153
g22
I0
sg23
I5
sg24
I1
sbaNasg40
Nsbag0
(g13
g2
Ntp154
Rp155
(dp156
g6
(lp157
g0
(g18
g2
Ntp158
Rp159
(dp160
g22
I0
sg23
I1
sg24
I0
sbag0
(g18
g2
Ntp161
Rp162
(dp163
g22
I0
sg23
I2
sg24
I6
sbag0
(g18
g2
Ntp164
Rp165
(dp166
g22
I0
sg23
I3
sg24
I0
sbag0
(g18
g2
Ntp167
Rp168
(dp169
g22
I0
sg23
I4
sg24
I5
sbag0
(g18
g2
Ntp170
Rp171
(dp172
g22
I0
sg23
I5
sg24
I3
sbasg40
Nsbag0
(g13
g2
Ntp173
Rp174
(dp175
g6
(lp176
g0
(g18
g2
Ntp177
Rp178
(dp179
g22
I0
sg23
I1
sg24
I0
sbag0
(g18
g2
Ntp180
Rp181
(dp182
g22
I0
sg23
I2
sg24
I5
sbag0
(g18
g2
Ntp183
Rp184
(dp185
g22
I0
sg23
I3
sg24
I0
sbag0
(g18
g2
Ntp186
Rp187
(dp188
g22
I0
sg23
I4
sg24
I5
sbag0
(g18
g2
Ntp189
Rp190
(dp191
g22
I0
sg23
I5
sg24
I3
sbaNasg40
Nsbag0
(g13
g2
Ntp192
Rp193
(dp194
g6
(lp195
sg40
S'D2'
p196
sbasg40
Nsg102
I00
sbag0
(g8
g2
Ntp197
Rp198
(dp199
g101
I00
sg102
I00
sg40
Nsg6
(lp200
g0
(g13
g2
Ntp201
Rp202
(dp203
g6
(lp204
g0
(g18
g2
Ntp205
Rp206
(dp207
g22
I0
sg23
I1
sg24
I0
sbag0
(g18
g2
Ntp208
Rp209
(dp210
g22
I0
sg23
I2
sg24
I6
sbag0
(g18
g2
Ntp211
Rp212
(dp213
g22
I0
sg23
I3
sg24
I5
sbag0
(g18
g2
Ntp214
Rp215
(dp216
g22
I0
sg23
I4
sg24
I0
sbasg40
S'Outro'
p217
sbag0
(g13
g2
Ntp218
Rp219
(dp220
g6
(lp221
g0
(g18
g2
Ntp222
Rp223
(dp224
g22
I0
sg23
I1
sg24
I0
sbag0
(g18
g2
Ntp225
Rp226
(dp227
g22
I0
sg23
I2
sg24
I3
sbag0
(g18
g2
Ntp228
Rp229
(dp230
g22
I0
sg23
I3
sg24
I2
sbag0
(g18
g2
Ntp231
Rp232
(dp233
g22
I0
sg23
I4
sg24
I3
sbasg40
Nsbag0
(g13
g2
Ntp234
Rp235
(dp236
g6
(lp237
g0
(g18
g2
Ntp238
Rp239
(dp240
g22
I0
sg23
I1
sg24
I0
sbag0
(g18
g2
Ntp241
Rp242
(dp243
g22
I0
sg23
I2
sg24
I3
sbag0
(g18
g2
Ntp244
Rp245
(dp246
g22
I0
sg23
I3
sg24
I2
sbag0
(g18
g2
Ntp247
Rp248
(dp249
g22
I0
sg23
I4
sg24
I2
sbasg40
Nsbag0
(g13
g2
Ntp250
Rp251
(dp252
g6
(lp253
sg40
Nsbag0
(g13
g2
Ntp254
Rp255
(dp256
g6
(lp257
g0
(g18
g2
Ntp258
Rp259
(dp260
g22
I0
sg23
I1
sg24
I0
sbag0
(g18
g2
Ntp261
Rp262
(dp263
g22
I0
sg23
I2
sg24
I3
sbag0
(g18
g2
Ntp264
Rp265
(dp266
g22
I0
sg23
I3
sg24
I1
sbag0
(g18
g2
Ntp267
Rp268
(dp269
g22
I0
sg23
I4
sg24
I2
sbasg40
Nsbasbasg40
NsS'tuningIndex'
p270
I1
sS'songName'
p271
S'Song9'
p272
sb.