ccopy_reg
_reconstructor
p0
(c__main__
pytabSong
p1
c__builtin__
object
p2
Ntp3
Rp4
(dp5
S'objects'
p6
(lp7
g0
(c__main__
pytabMeasure
p8
g2
Ntp9
Rp10
(dp11
S'pageBreak'
p12
I00
sS'repeat'
p13
I00
sS'annotation'
p14
Nsg6
(lp15
g0
(c__main__
pytabBeat
p16
g2
Ntp17
Rp18
(dp19
g6
(lp20
g0
(c__main__
pytabNote
p21
g2
Ntp22
Rp23
(dp24
S'noteType'
p25
I0
sS'string'
p26
I1
sS'fret'
p27
I3
sbag0
(g21
g2
Ntp28
Rp29
(dp30
g25
I0
sg26
I2
sg27
I0
sbag0
(g21
g2
Ntp31
Rp32
(dp33
g25
I0
sg26
I3
sg27
I0
sbag0
(g21
g2
Ntp34
Rp35
(dp36
g25
I0
sg26
I4
sg27
I2
sbasg14
S'I - Em'
p37
sbag0
(g16
g2
Ntp38
Rp39
(dp40
g6
(lp41
g0
(g21
g2
Ntp42
Rp43
(dp44
g25
I0
sg26
I1
sg27
I2
sbaNaNaNaNasg14
Nsbag0
(g16
g2
Ntp45
Rp46
(dp47
g6
(lp48
g0
(g21
g2
Ntp49
Rp50
(dp51
g25
I0
sg26
I1
sg27
I0
sbasg14
Nsbag0
(g16
g2
Ntp52
Rp53
(dp54
g6
(lp55
g0
(g21
g2
Ntp56
Rp57
(dp58
g25
I0
sg26
I1
sg27
I0
sbag0
(g21
g2
Ntp59
Rp60
(dp61
g25
I0
sg26
I2
sg27
I3
sbag0
(g21
g2
Ntp62
Rp63
(dp64
g25
I0
sg26
I3
sg27
I2
sbag0
(g21
g2
Ntp65
Rp66
(dp67
g25
I0
sg26
I4
sg27
I4
sbasg14
S'D'
p68
sbag0
(g16
g2
Ntp69
Rp70
(dp71
g6
(lp72
g0
(g21
g2
Ntp73
Rp74
(dp75
g25
I0
sg26
I1
sg27
I0
sbag0
(g21
g2
Ntp76
Rp77
(dp78
g25
I0
sg26
I2
sg27
I2
sbag0
(g21
g2
Ntp79
Rp80
(dp81
g25
I0
sg26
I3
sg27
I3
sbag0
(g21
g2
Ntp82
Rp83
(dp84
g25
I0
sg26
I4
sg27
I4
sbasg14
S'F#'
p85
sbag0
(g16
g2
Ntp86
Rp87
(dp88
g6
(lp89
Nag0
(g21
g2
Ntp90
Rp91
(dp92
g25
I0
sg26
I2
sg27
I3
sbaNaNasg14
Nsbag0
(g16
g2
Ntp93
Rp94
(dp95
g6
(lp96
g0
(g21
g2
Ntp97
Rp98
(dp99
g25
I0
sg26
I1
sg27
I0
sbag0
(g21
g2
Ntp100
Rp101
(dp102
g25
I0
sg26
I2
sg27
I0
sbag0
(g21
g2
Ntp103
Rp104
(dp105
g25
I0
sg26
I3
sg27
I1
sbag0
(g21
g2
Ntp106
Rp107
(dp108
g25
I0
sg26
I4
sg27
I2
sbasg14
S'E'
p109
sbasbag0
(g8
g2
Ntp110
Rp111
(dp112
g12
I00
sg13
I01
sg14
Nsg6
(lp113
g0
(g16
g2
Ntp114
Rp115
(dp116
g6
(lp117
g0
(g21
g2
Ntp118
Rp119
(dp120
g25
I0
sg26
I1
sg27
I3
sbag0
(g21
g2
Ntp121
Rp122
(dp123
g25
I0
sg26
I2
sg27
I0
sbag0
(g21
g2
Ntp124
Rp125
(dp126
g25
I0
sg26
I3
sg27
I0
sbag0
(g21
g2
Ntp127
Rp128
(dp129
g25
I0
sg26
I4
sg27
I2
sbasg14
Nsbag0
(g16
g2
Ntp130
Rp131
(dp132
g6
(lp133
g0
(g21
g2
Ntp134
Rp135
(dp136
g25
I0
sg26
I1
sg27
I2
sbasg14
Nsbag0
(g16
g2
Ntp137
Rp138
(dp139
g6
(lp140
g0
(g21
g2
Ntp141
Rp142
(dp143
g25
I0
sg26
I1
sg27
I0
sbasg14
Nsbag0
(g16
g2
Ntp144
Rp145
(dp146
g6
(lp147
g0
(g21
g2
Ntp148
Rp149
(dp150
g25
I0
sg26
I1
sg27
I0
sbag0
(g21
g2
Ntp151
Rp152
(dp153
g25
I0
sg26
I2
sg27
I3
sbag0
(g21
g2
Ntp154
Rp155
(dp156
g25
I0
sg26
I3
sg27
I2
sbag0
(g21
g2
Ntp157
Rp158
(dp159
g25
I0
sg26
I4
sg27
I4
sbasg14
Nsbag0
(g16
g2
Ntp160
Rp161
(dp162
g6
(lp163
g0
(g21
g2
Ntp164
Rp165
(dp166
g25
I0
sg26
I1
sg27
I0
sbag0
(g21
g2
Ntp167
Rp168
(dp169
g25
I0
sg26
I2
sg27
I1
sbag0
(g21
g2
Ntp170
Rp171
(dp172
g25
I0
sg26
I3
sg27
I2
sbag0
(g21
g2
Ntp173
Rp174
(dp175
g25
I0
sg26
I4
sg27
I3
sbasg14
S'F'
p176
sbag0
(g16
g2
Ntp177
Rp178
(dp179
g6
(lp180
g0
(g21
g2
Ntp181
Rp182
(dp183
g25
I0
sg26
I1
sg27
I1
sbaNaNaNasg14
Nsbag0
(g16
g2
Ntp184
Rp185
(dp186
g6
(lp187
g0
(g21
g2
Ntp188
Rp189
(dp190
g25
I0
sg26
I1
sg27
I0
sbasg14
Nsbasbag0
(g8
g2
Ntp191
Rp192
(dp193
g6
(lp194
g0
(g16
g2
Ntp195
Rp196
(dp197
g6
(lp198
Nag0
(g21
g2
Ntp199
Rp200
(dp201
g25
I0
sg26
I2
sg27
I0
sbag0
(g21
g2
Ntp202
Rp203
(dp204
g25
I0
sg26
I3
sg27
I0
sbag0
(g21
g2
Ntp205
Rp206
(dp207
g25
I0
sg26
I4
sg27
I2
sbasg14
S'Bridge-Em'
p208
sbag0
(g16
g2
Ntp209
Rp210
(dp211
g6
(lp212
NaNaNag0
(g21
g2
Ntp213
Rp214
(dp215
g25
I0
sg26
I4
sg27
I4
sbasg14
Nsbag0
(g16
g2
Ntp216
Rp217
(dp218
g6
(lp219
NaNaNag0
(g21
g2
Ntp220
Rp221
(dp222
g25
I0
sg26
I4
sg27
I5
sbasg14
Nsbag0
(g16
g2
Ntp223
Rp224
(dp225
g6
(lp226
NaNaNaNag0
(g21
g2
Ntp227
Rp228
(dp229
g25
I0
sg26
I5
sg27
I2
sbasg14
Nsbasg12
I01
sg14
Nsg13
I01
sbag0
(g8
g2
Ntp230
Rp231
(dp232
g6
(lp233
g0
(g16
g2
Ntp234
Rp235
(dp236
g6
(lp237
Nag0
(g21
g2
Ntp238
Rp239
(dp240
g25
I0
sg26
I2
sg27
I0
sbag0
(g21
g2
Ntp241
Rp242
(dp243
g25
I0
sg26
I3
sg27
I0
sbaNag0
(g21
g2
Ntp244
Rp245
(dp246
g25
I0
sg26
I5
sg27
I3
sbasg14
S'C'
p247
sbag0
(g16
g2
Ntp248
Rp249
(dp250
g6
(lp251
NaNaNag0
(g21
g2
Ntp252
Rp253
(dp254
g25
I0
sg26
I4
sg27
I0
sbasg14
Nsbag0
(g16
g2
Ntp255
Rp256
(dp257
g6
(lp258
NaNaNag0
(g21
g2
Ntp259
Rp260
(dp261
g25
I0
sg26
I4
sg27
I2
sbasg14
Nsbag0
(g16
g2
Ntp262
Rp263
(dp264
g6
(lp265
NaNaNag0
(g21
g2
Ntp266
Rp267
(dp268
g25
I0
sg26
I4
sg27
I4
sbasg14
Nsbasg12
I00
sg14
Nsg13
I01
sbag0
(g8
g2
Ntp269
Rp270
(dp271
g12
I00
sg6
(lp272
g0
(g16
g2
Ntp273
Rp274
(dp275
g6
(lp276
Nag0
(g21
g2
Ntp277
Rp278
(dp279
g25
I0
sg26
I2
sg27
I1
sbag0
(g21
g2
Ntp280
Rp281
(dp282
g25
I0
sg26
I3
sg27
I2
sbaNag0
(g21
g2
Ntp283
Rp284
(dp285
g25
I0
sg26
I5
sg27
I0
sbasg14
S'Am'
p286
sbag0
(g16
g2
Ntp287
Rp288
(dp289
g6
(lp290
NaNaNag0
(g21
g2
Ntp291
Rp292
(dp293
g25
I0
sg26
I4
sg27
I3
sbasg14
Nsbag0
(g16
g2
Ntp294
Rp295
(dp296
g6
(lp297
NaNaNag0
(g21
g2
Ntp298
Rp299
(dp300
g25
I0
sg26
I4
sg27
I2
sbasg14
Nsbag0
(g16
g2
Ntp301
Rp302
(dp303
g6
(lp304
NaNaNaNaNag0
(g21
g2
Ntp305
Rp306
(dp307
g25
I0
sg26
I6
sg27
I3
sbasg14
Nsbasg14
Nsg13
I01
sbag0
(g8
g2
Ntp308
Rp309
(dp310
g6
(lp311
g0
(g16
g2
Ntp312
Rp313
(dp314
g6
(lp315
Nag0
(g21
g2
Ntp316
Rp317
(dp318
g25
I0
sg26
I2
sg27
I0
sbag0
(g21
g2
Ntp319
Rp320
(dp321
g25
I0
sg26
I3
sg27
I0
sbaNaNag0
(g21
g2
Ntp322
Rp323
(dp324
g25
I0
sg26
I6
sg27
I0
sbasg14
S'Em'
p325
sbag0
(g16
g2
Ntp326
Rp327
(dp328
g6
(lp329
NaNaNag0
(g21
g2
Ntp330
Rp331
(dp332
g25
I0
sg26
I4
sg27
I2
sbaNasg14
Nsbag0
(g16
g2
Ntp333
Rp334
(dp335
g6
(lp336
NaNaNag0
(g21
g2
Ntp337
Rp338
(dp339
g25
I0
sg26
I4
sg27
I0
sbasg14
Nsbag0
(g16
g2
Ntp340
Rp341
(dp342
g6
(lp343
NaNaNaNag0
(g21
g2
Ntp344
Rp345
(dp346
g25
I0
sg26
I5
sg27
I2
sbasg14
Nsbasg12
I00
sg14
Nsg13
I01
sbag0
(g8
g2
Ntp347
Rp348
(dp349
g12
I00
sg6
(lp350
g0
(g16
g2
Ntp351
Rp352
(dp353
g6
(lp354
Nag0
(g21
g2
Ntp355
Rp356
(dp357
g25
I0
sg26
I2
sg27
I3
sbag0
(g21
g2
Ntp358
Rp359
(dp360
g25
I0
sg26
I3
sg27
I2
sbag0
(g21
g2
Ntp361
Rp362
(dp363
g25
I0
sg26
I4
sg27
I3
sbag0
(g21
g2
Ntp364
Rp365
(dp366
g25
I0
sg26
I5
sg27
I2
sbasg14
S'Bdim'
p367
sbag0
(g16
g2
Ntp368
Rp369
(dp370
g6
(lp371
NaNaNaNag0
(g21
g2
Ntp372
Rp373
(dp374
g25
I0
sg26
I5
sg27
I0
sbasg14
Nsbag0
(g16
g2
Ntp375
Rp376
(dp377
g6
(lp378
NaNaNag0
(g21
g2
Ntp379
Rp380
(dp381
g25
I3
sg26
I4
sg27
I3
sbag0
(g21
g2
Ntp382
Rp383
(dp384
g25
I0
sg26
I5
sg27
I2
sbasg14
Nsbag0
(g16
g2
Ntp385
Rp386
(dp387
g6
(lp388
NaNaNaNaNag0
(g21
g2
Ntp389
Rp390
(dp391
g25
I0
sg26
I6
sg27
I0
sbasg14
Nsbasg14
Nsg13
I00
sbag0
(g8
g2
Ntp392
Rp393
(dp394
g6
(lp395
g0
(g16
g2
Ntp396
Rp397
(dp398
g6
(lp399
g0
(g21
g2
Ntp400
Rp401
(dp402
g25
I0
sg26
I1
sg27
I3
sbag0
(g21
g2
Ntp403
Rp404
(dp405
g25
I0
sg26
I2
sg27
I5
sbag0
(g21
g2
Ntp406
Rp407
(dp408
g25
I0
sg26
I3
sg27
I4
sbaNaNag0
(g21
g2
Ntp409
Rp410
(dp411
g25
I0
sg26
I6
sg27
I0
sbasg14
S'Interlude'
p412
sbag0
(g16
g2
Ntp413
Rp414
(dp415
g6
(lp416
g0
(g21
g2
Ntp417
Rp418
(dp419
g25
I0
sg26
I1
sg27
I1
sbag0
(g21
g2
Ntp420
Rp421
(dp422
g25
I0
sg26
I2
sg27
I3
sbag0
(g21
g2
Ntp423
Rp424
(dp425
g25
I0
sg26
I3
sg27
I2
sbaNag0
(g21
g2
Ntp426
Rp427
(dp428
g25
I0
sg26
I5
sg27
I2
sbaNasg14
Nsbag0
(g16
g2
Ntp429
Rp430
(dp431
g6
(lp432
g0
(g21
g2
Ntp433
Rp434
(dp435
g25
I0
sg26
I1
sg27
I0
sbag0
(g21
g2
Ntp436
Rp437
(dp438
g25
I0
sg26
I2
sg27
I1
sbag0
(g21
g2
Ntp439
Rp440
(dp441
g25
I0
sg26
I3
sg27
I0
sbaNag0
(g21
g2
Ntp442
Rp443
(dp444
g25
I0
sg26
I5
sg27
I3
sbasg14
Nsbag0
(g16
g2
Ntp445
Rp446
(dp447
g6
(lp448
sg14
Nsbag0
(g16
g2
Ntp449
Rp450
(dp451
g6
(lp452
g0
(g21
g2
Ntp453
Rp454
(dp455
g25
I0
sg26
I1
sg27
I0
sbag0
(g21
g2
Ntp456
Rp457
(dp458
g25
I0
sg26
I2
sg27
I1
sbag0
(g21
g2
Ntp459
Rp460
(dp461
g25
I0
sg26
I3
sg27
I0
sbaNag0
(g21
g2
Ntp462
Rp463
(dp464
g25
I0
sg26
I5
sg27
I3
sbasg14
Nsbag0
(g16
g2
Ntp465
Rp466
(dp467
g6
(lp468
Nag0
(g21
g2
Ntp469
Rp470
(dp471
g25
I0
sg26
I2
sg27
I3
sbag0
(g21
g2
Ntp472
Rp473
(dp474
g25
I0
sg26
I3
sg27
I3
sbag0
(g21
g2
Ntp475
Rp476
(dp477
g25
I0
sg26
I4
sg27
I2
sbasg14
Nsbag0
(g16
g2
Ntp478
Rp479
(dp480
g6
(lp481
Nag0
(g21
g2
Ntp482
Rp483
(dp484
g25
I0
sg26
I2
sg27
I1
sbag0
(g21
g2
Ntp485
Rp486
(dp487
g25
I0
sg26
I3
sg27
I2
sbag0
(g21
g2
Ntp488
Rp489
(dp490
g25
I0
sg26
I4
sg27
I3
sbag0
(g21
g2
Ntp491
Rp492
(dp493
g25
I0
sg26
I5
sg27
I0
sbasg14
Nsbag0
(g16
g2
Ntp494
Rp495
(dp496
g6
(lp497
sg14
Nsbag0
(g16
g2
Ntp498
Rp499
(dp500
g6
(lp501
Nag0
(g21
g2
Ntp502
Rp503
(dp504
g25
I0
sg26
I2
sg27
I6
sbag0
(g21
g2
Ntp505
Rp506
(dp507
g25
I0
sg26
I3
sg27
I6
sbaNag0
(g21
g2
Ntp508
Rp509
(dp510
g25
I0
sg26
I5
sg27
I0
sbasg14
Nsbag0
(g16
g2
Ntp511
Rp512
(dp513
g6
(lp514
Nag0
(g21
g2
Ntp515
Rp516
(dp517
g25
I0
sg26
I2
sg27
I5
sbag0
(g21
g2
Ntp518
Rp519
(dp520
g25
I0
sg26
I3
sg27
I6
sbag0
(g21
g2
Ntp521
Rp522
(dp523
g25
I0
sg26
I4
sg27
I5
sbasg14
Nsbag0
(g16
g2
Ntp524
Rp525
(dp526
g6
(lp527
g0
(g21
g2
Ntp528
Rp529
(dp530
g25
I0
sg26
I1
sg27
I0
sbag0
(g21
g2
Ntp531
Rp532
(dp533
g25
I0
sg26
I2
sg27
I3
sbag0
(g21
g2
Ntp534
Rp535
(dp536
g25
I0
sg26
I3
sg27
I0
sbag0
(g21
g2
Ntp537
Rp538
(dp539
g25
I0
sg26
I4
sg27
I4
sbag0
(g21
g2
Ntp540
Rp541
(dp542
g25
I0
sg26
I5
sg27
I5
sbasg14
Nsbasg12
I01
sg14
Nsg13
I00
sbag0
(g8
g2
Ntp543
Rp544
(dp545
g12
I01
sg13
I00
sg14
Nsg6
(lp546
g0
(g16
g2
Ntp547
Rp548
(dp549
g6
(lp550
g0
(g21
g2
Ntp551
Rp552
(dp553
g25
I0
sg26
I1
sg27
I3
sbaNaNaNag0
(g21
g2
Ntp554
Rp555
(dp556
g25
I0
sg26
I5
sg27
I2
sbasg14
S'Ideas'
p557
sbag0
(g16
g2
Ntp558
Rp559
(dp560
g6
(lp561
g0
(g21
g2
Ntp562
Rp563
(dp564
g25
I0
sg26
I1
sg27
I2
sbasg14
Nsbag0
(g16
g2
Ntp565
Rp566
(dp567
g6
(lp568
g0
(g21
g2
Ntp569
Rp570
(dp571
g25
I0
sg26
I1
sg27
I0
sbasg14
Nsbag0
(g16
g2
Ntp572
Rp573
(dp574
g6
(lp575
Nag0
(g21
g2
Ntp576
Rp577
(dp578
g25
I0
sg26
I2
sg27
I3
sbasg14
Nsbag0
(g16
g2
Ntp579
Rp580
(dp581
g6
(lp582
Nag0
(g21
g2
Ntp583
Rp584
(dp585
g25
I0
sg26
I2
sg27
I2
sbaNaNaNag0
(g21
g2
Ntp586
Rp587
(dp588
g25
I0
sg26
I6
sg27
I2
sbasg14
Nsbag0
(g16
g2
Ntp589
Rp590
(dp591
g6
(lp592
Nag0
(g21
g2
Ntp593
Rp594
(dp595
g25
I0
sg26
I2
sg27
I3
sbasg14
Nsbag0
(g16
g2
Ntp596
Rp597
(dp598
g6
(lp599
Nag0
(g21
g2
Ntp600
Rp601
(dp602
g25
I0
sg26
I2
sg27
I0
sbaNaNaNag0
(g21
g2
Ntp603
Rp604
(dp605
g25
I0
sg26
I6
sg27
I3
sbasg14
Nsbag0
(g16
g2
Ntp606
Rp607
(dp608
g6
(lp609
sg14
Nsbag0
(g16
g2
Ntp610
Rp611
(dp612
g6
(lp613
NaNag0
(g21
g2
Ntp614
Rp615
(dp616
g25
I0
sg26
I3
sg27
I2
sbaNaNag0
(g21
g2
Ntp617
Rp618
(dp619
g25
I0
sg26
I6
sg27
I1
sbasg14
Nsbag0
(g16
g2
Ntp620
Rp621
(dp622
g6
(lp623
Nag0
(g21
g2
Ntp624
Rp625
(dp626
g25
I0
sg26
I2
sg27
I0
sbasg14
Nsbag0
(g16
g2
Ntp627
Rp628
(dp629
g6
(lp630
Nag0
(g21
g2
Ntp631
Rp632
(dp633
g25
I0
sg26
I2
sg27
I1
sbasg14
Nsbag0
(g16
g2
Ntp634
Rp635
(dp636
g6
(lp637
g0
(g21
g2
Ntp638
Rp639
(dp640
g25
I0
sg26
I1
sg27
I1
sbaNasg14
Nsbag0
(g16
g2
Ntp641
Rp642
(dp643
g6
(lp644
g0
(g21
g2
Ntp645
Rp646
(dp647
g25
I0
sg26
I1
sg27
I0
sbaNaNaNag0
(g21
g2
Ntp648
Rp649
(dp650
g25
I0
sg26
I5
sg27
I0
sbasg14
Nsbasbag0
(g8
g2
Ntp651
Rp652
(dp653
g6
(lp654
g0
(g16
g2
Ntp655
Rp656
(dp657
g6
(lp658
Nag0
(g21
g2
Ntp659
Rp660
(dp661
g25
I0
sg26
I2
sg27
I8
sbag0
(g21
g2
Ntp662
Rp663
(dp664
g25
I0
sg26
I3
sg27
I5
sbag0
(g21
g2
Ntp665
Rp666
(dp667
g25
I0
sg26
I4
sg27
I7
sbag0
(g21
g2
Ntp668
Rp669
(dp670
g25
I0
sg26
I5
sg27
I0
sbasg14
Nsbag0
(g16
g2
Ntp671
Rp672
(dp673
g6
(lp674
Nag0
(g21
g2
Ntp675
Rp676
(dp677
g25
I0
sg26
I2
sg27
I7
sbasg14
Nsbag0
(g16
g2
Ntp678
Rp679
(dp680
g6
(lp681
NaNag0
(g21
g2
Ntp682
Rp683
(dp684
g25
I0
sg26
I3
sg27
I5
sbag0
(g21
g2
Ntp685
Rp686
(dp687
g25
I0
sg26
I4
sg27
I6
sbag0
(g21
g2
Ntp688
Rp689
(dp690
g25
I0
sg26
I5
sg27
I7
sbasg14
Nsbag0
(g16
g2
Ntp691
Rp692
(dp693
g6
(lp694
Nag0
(g21
g2
Ntp695
Rp696
(dp697
g25
I0
sg26
I2
sg27
I0
sbaNasg14
Nsbag0
(g16
g2
Ntp698
Rp699
(dp700
g6
(lp701
NaNag0
(g21
g2
Ntp702
Rp703
(dp704
g25
I0
sg26
I3
sg27
I5
sbasg14
Nsbag0
(g16
g2
Ntp705
Rp706
(dp707
g6
(lp708
Nag0
(g21
g2
Ntp709
Rp710
(dp711
g25
I0
sg26
I2
sg27
I0
sbaNasg14
Nsbag0
(g16
g2
Ntp712
Rp713
(dp714
g6
(lp715
g0
(g21
g2
Ntp716
Rp717
(dp718
g25
I0
sg26
I1
sg27
I5
sbag0
(g21
g2
Ntp719
Rp720
(dp721
g25
I0
sg26
I2
sg27
I5
sbag0
(g21
g2
Ntp722
Rp723
(dp724
g25
I0
sg26
I3
sg27
I4
sbaNag0
(g21
g2
Ntp725
Rp726
(dp727
g25
I0
sg26
I5
sg27
I0
sbasg14
Nsbasg12
I00
sg14
Nsg13
I00
sbag0
(g8
g2
Ntp728
Rp729
(dp730
g6
(lp731
g0
(g16
g2
Ntp732
Rp733
(dp734
g6
(lp735
g0
(g21
g2
Ntp736
Rp737
(dp738
g25
I0
sg26
I1
sg27
I6
sbag0
(g21
g2
Ntp739
Rp740
(dp741
g25
I0
sg26
I2
sg27
I6
sbag0
(g21
g2
Ntp742
Rp743
(dp744
g25
I0
sg26
I3
sg27
I0
sbag0
(g21
g2
Ntp745
Rp746
(dp747
g25
I0
sg26
I4
sg27
I5
sbasg14
Nsbag0
(g16
g2
Ntp748
Rp749
(dp750
g6
(lp751
g0
(g21
g2
Ntp752
Rp753
(dp754
g25
I0
sg26
I1
sg27
I5
sbasg14
Nsbag0
(g16
g2
Ntp755
Rp756
(dp757
g6
(lp758
g0
(g21
g2
Ntp759
Rp760
(dp761
g25
I0
sg26
I1
sg27
I6
sbasg14
Nsbag0
(g16
g2
Ntp762
Rp763
(dp764
g6
(lp765
sg14
Nsbag0
(g16
g2
Ntp766
Rp767
(dp768
g6
(lp769
g0
(g21
g2
Ntp770
Rp771
(dp772
g25
I0
sg26
I1
sg27
I10
sbag0
(g21
g2
Ntp773
Rp774
(dp775
g25
I0
sg26
I2
sg27
I10
sbag0
(g21
g2
Ntp776
Rp777
(dp778
g25
I0
sg26
I3
sg27
I9
sbag0
(g21
g2
Ntp779
Rp780
(dp781
g25
I0
sg26
I4
sg27
I8
sbasg14
Nsbag0
(g16
g2
Ntp782
Rp783
(dp784
g6
(lp785
g0
(g21
g2
Ntp786
Rp787
(dp788
g25
I0
sg26
I1
sg27
I8
sbag0
(g21
g2
Ntp789
Rp790
(dp791
g25
I0
sg26
I2
sg27
I8
sbag0
(g21
g2
Ntp792
Rp793
(dp794
g25
I0
sg26
I3
sg27
I9
sbag0
(g21
g2
Ntp795
Rp796
(dp797
g25
I0
sg26
I4
sg27
I7
sbasg14
Nsbasg12
I00
sg14
Nsg13
I00
sbag0
(g8
g2
Ntp798
Rp799
(dp800
g6
(lp801
g0
(g16
g2
Ntp802
Rp803
(dp804
g6
(lp805
Nag0
(g21
g2
Ntp806
Rp807
(dp808
g25
I0
sg26
I2
sg27
I8
sbag0
(g21
g2
Ntp809
Rp810
(dp811
g25
I0
sg26
I3
sg27
I5
sbag0
(g21
g2
Ntp812
Rp813
(dp814
g25
I0
sg26
I4
sg27
I7
sbag0
(g21
g2
Ntp815
Rp816
(dp817
g25
I0
sg26
I5
sg27
I0
sbasg14
Nsbag0
(g16
g2
Ntp818
Rp819
(dp820
g6
(lp821
Nag0
(g21
g2
Ntp822
Rp823
(dp824
g25
I0
sg26
I2
sg27
I7
sbasg14
Nsbag0
(g16
g2
Ntp825
Rp826
(dp827
g6
(lp828
NaNag0
(g21
g2
Ntp829
Rp830
(dp831
g25
I0
sg26
I3
sg27
I5
sbag0
(g21
g2
Ntp832
Rp833
(dp834
g25
I0
sg26
I4
sg27
I6
sbag0
(g21
g2
Ntp835
Rp836
(dp837
g25
I0
sg26
I5
sg27
I7
sbasg14
Nsbag0
(g16
g2
Ntp838
Rp839
(dp840
g6
(lp841
Nag0
(g21
g2
Ntp842
Rp843
(dp844
g25
I0
sg26
I2
sg27
I0
sbaNasg14
Nsbag0
(g16
g2
Ntp845
Rp846
(dp847
g6
(lp848
NaNag0
(g21
g2
Ntp849
Rp850
(dp851
g25
I0
sg26
I3
sg27
I5
sbasg14
Nsbag0
(g16
g2
Ntp852
Rp853
(dp854
g6
(lp855
Nag0
(g21
g2
Ntp856
Rp857
(dp858
g25
I0
sg26
I2
sg27
I0
sbaNasg14
Nsbag0
(g16
g2
Ntp859
Rp860
(dp861
g6
(lp862
g0
(g21
g2
Ntp863
Rp864
(dp865
g25
I0
sg26
I1
sg27
I5
sbag0
(g21
g2
Ntp866
Rp867
(dp868
g25
I0
sg26
I2
sg27
I5
sbag0
(g21
g2
Ntp869
Rp870
(dp871
g25
I0
sg26
I3
sg27
I4
sbaNag0
(g21
g2
Ntp872
Rp873
(dp874
g25
I0
sg26
I5
sg27
I0
sbasg14
Nsbasg12
I00
sg14
Nsg13
I00
sbasS'tuningIndex'
p875
I0
sg14
NsS'songName'
p876
S'Song2'
p877
sb.